ccopy_reg
_reconstructor
p0
(c__main__
Machine
p1
c__builtin__
object
p2
Ntp3
Rp4
(dp5
S'registers'
p6
(lp7
I25975
aI25974
aI26006
aI0
aI101
aI0
aI0
aI0
asS'input_buffer'
p8
ccollections
deque
p9
((lp10
tp11
Rp12
sS'm'
p13
(lp14
I21
aI21
aI19
aI87
aI19
aI101
aI19
aI108
aI19
aI99
aI19
aI111
aI19
aI109
aI19
aI101
aI19
aI32
aI19
aI116
aI19
aI111
aI19
aI32
aI19
aI116
aI19
aI104
aI19
aI101
aI19
aI32
aI19
aI83
aI19
aI121
aI19
aI110
aI19
aI97
aI19
aI99
aI19
aI111
aI19
aI114
aI19
aI32
aI19
aI67
aI19
aI104
aI19
aI97
aI19
aI108
aI19
aI108
aI19
aI101
aI19
aI110
aI19
aI103
aI19
aI101
aI19
aI33
aI19
aI10
aI19
aI80
aI19
aI108
aI19
aI101
aI19
aI97
aI19
aI115
aI19
aI101
aI19
aI32
aI19
aI114
aI19
aI101
aI19
aI99
aI19
aI111
aI19
aI114
aI19
aI100
aI19
aI32
aI19
aI121
aI19
aI111
aI19
aI117
aI19
aI114
aI19
aI32
aI19
aI112
aI19
aI114
aI19
aI111
aI19
aI103
aI19
aI114
aI19
aI101
aI19
aI115
aI19
aI115
aI19
aI32
aI19
aI98
aI19
aI121
aI19
aI32
aI19
aI112
aI19
aI117
aI19
aI116
aI19
aI116
aI19
aI105
aI19
aI110
aI19
aI103
aI19
aI32
aI19
aI99
aI19
aI111
aI19
aI100
aI19
aI101
aI19
aI115
aI19
aI32
aI19
aI108
aI19
aI105
aI19
aI107
aI19
aI101
aI19
aI10
aI19
aI116
aI19
aI104
aI19
aI105
aI19
aI115
aI19
aI32
aI19
aI111
aI19
aI110
aI19
aI101
aI19
aI32
aI19
aI105
aI19
aI110
aI19
aI116
aI19
aI111
aI19
aI32
aI19
aI116
aI19
aI104
aI19
aI101
aI19
aI32
aI19
aI99
aI19
aI104
aI19
aI97
aI19
aI108
aI19
aI108
aI19
aI101
aI19
aI110
aI19
aI103
aI19
aI101
aI19
aI32
aI19
aI119
aI19
aI101
aI19
aI98
aI19
aI115
aI19
aI105
aI19
aI116
aI19
aI101
aI19
aI58
aI19
aI32
aI19
aI72
aI19
aI113
aI19
aI86
aI19
aI85
aI19
aI118
aI19
aI67
aI19
aI112
aI19
aI77
aI19
aI122
aI19
aI79
aI19
aI116
aI19
aI65
aI19
aI10
aI19
aI10
aI19
aI69
aI19
aI120
aI19
aI101
aI19
aI99
aI19
aI117
aI19
aI116
aI19
aI105
aI19
aI110
aI19
aI103
aI19
aI32
aI19
aI115
aI19
aI101
aI19
aI108
aI19
aI102
aI19
aI45
aI19
aI116
aI19
aI101
aI19
aI115
aI19
aI116
aI19
aI46
aI19
aI46
aI19
aI46
aI19
aI10
aI19
aI10
aI6
aI347
aI19
aI106
aI19
aI109
aI19
aI112
aI19
aI32
aI19
aI102
aI19
aI97
aI19
aI105
aI19
aI108
aI19
aI115
aI19
aI10
aI0
aI21
aI21
aI21
aI21
aI21
aI21
aI21
aI21
aI21
aI6
aI358
aI6
aI368
aI6
aI397
aI6
aI484
aI6
aI424
aI6
aI453
aI21
aI21
aI21
aI21
aI19
aI106
aI19
aI109
aI19
aI112
aI19
aI32
aI19
aI108
aI19
aI97
aI19
aI110
aI19
aI100
aI19
aI115
aI19
aI32
aI19
aI45
aI19
aI50
aI19
aI10
aI0
aI21
aI21
aI19
aI106
aI19
aI109
aI19
aI112
aI19
aI32
aI19
aI108
aI19
aI97
aI19
aI110
aI19
aI100
aI19
aI115
aI19
aI32
aI19
aI45
aI19
aI49
aI19
aI10
aI0
aI21
aI21
aI19
aI106
aI19
aI109
aI19
aI112
aI19
aI32
aI19
aI108
aI19
aI97
aI19
aI110
aI19
aI100
aI19
aI115
aI19
aI32
aI19
aI43
aI19
aI49
aI19
aI10
aI0
aI21
aI21
aI21
aI21
aI19
aI106
aI19
aI109
aI19
aI112
aI19
aI32
aI19
aI108
aI19
aI97
aI19
aI110
aI19
aI100
aI19
aI115
aI19
aI32
aI19
aI43
aI19
aI50
aI19
aI10
aI0
aI7
aI0
aI1074
aI8
aI1
aI1074
aI7
aI1
aI495
aI6
aI1074
aI8
aI0
aI500
aI6
aI1074
aI7
aI32768
aI1093
aI7
aI32769
aI1093
aI7
aI32770
aI1093
aI7
aI32771
aI1093
aI7
aI32772
aI1093
aI7
aI32773
aI1093
aI7
aI32774
aI1093
aI7
aI32775
aI1093
aI1
aI32768
aI1
aI8
aI32768
aI1118
aI1
aI32768
aI0
aI7
aI32768
aI1118
aI9
aI32768
aI1
aI1
aI7
aI32768
aI564
aI19
aI110
aI19
aI111
aI19
aI32
aI19
aI97
aI19
aI100
aI19
aI100
aI19
aI32
aI19
aI111
aI19
aI112
aI19
aI10
aI0
aI4
aI32769
aI32768
aI2
aI7
aI32769
aI590
aI19
aI110
aI19
aI111
aI19
aI32
aI19
aI101
aI19
aI113
aI19
aI32
aI19
aI111
aI19
aI112
aI19
aI10
aI0
aI2
aI32768
aI2
aI32769
aI3
aI32768
aI3
aI32769
aI4
aI32770
aI32769
aI2
aI8
aI32770
aI1158
aI4
aI32770
aI32768
aI1
aI8
aI32770
aI1158
aI5
aI32770
aI32769
aI32768
aI8
aI32770
aI1139
aI5
aI32770
aI32768
aI32769
aI7
aI32770
aI1139
aI5
aI32770
aI42
aI42
aI7
aI32770
aI1139
aI12
aI32768
aI28912
aI19626
aI4
aI32769
aI32768
aI16544
aI8
aI32769
aI1177
aI13
aI32769
aI28912
aI19626
aI4
aI32768
aI32769
aI31994
aI7
aI32768
aI684
aI19
aI110
aI19
aI111
aI19
aI32
aI19
aI98
aI19
aI105
aI19
aI116
aI19
aI119
aI19
aI105
aI19
aI115
aI19
aI101
aI19
aI32
aI19
aI111
aI19
aI114
aI19
aI10
aI0
aI14
aI32768
aI0
aI4
aI32769
aI32768
aI32767
aI8
aI32769
aI1208
aI14
aI32768
aI21845
aI4
aI32769
aI32768
aI10922
aI8
aI32769
aI1208
aI17
aI1285
aI6
aI1289
aI3
aI32768
aI4
aI32769
aI32768
aI708
aI7
aI32769
aI1289
aI4
aI32769
aI32768
aI706
aI8
aI32769
aI1289
aI1
aI32768
aI1287
aI17
aI32768
aI6
aI1289
aI3
aI32768
aI4
aI32769
aI32768
aI731
aI7
aI32769
aI1289
aI4
aI32769
aI32768
aI729
aI8
aI32769
aI1289
aI9
aI32768
aI32767
aI32767
aI4
aI32769
aI32768
aI32766
aI8
aI32769
aI1312
aI4
aI32769
aI32766
aI32768
aI8
aI32769
aI1312
aI9
aI32768
aI16384
aI16384
aI7
aI32768
aI1312
aI9
aI32768
aI16384
aI16384
aI7
aI32768
aI1312
aI10
aI32768
aI6
aI9
aI4
aI32769
aI32768
aI42
aI7
aI32769
aI1381
aI4
aI32769
aI32768
aI54
aI8
aI32769
aI1414
aI10
aI32768
aI12345
aI32123
aI4
aI32769
aI32768
aI99
aI8
aI32769
aI1312
aI11
aI32768
aI6
aI3
aI4
aI32769
aI32768
aI0
aI8
aI32769
aI1437
aI11
aI32768
aI70
aI6
aI4
aI32769
aI32768
aI4
aI8
aI32769
aI1437
aI10
aI32768
aI32766
aI15
aI4
aI32769
aI32768
aI32738
aI8
aI32769
aI1312
aI6
aI845
aI30000
aI10000
aI15
aI32768
aI843
aI4
aI32769
aI32768
aI20000
aI8
aI32769
aI1239
aI9
aI32770
aI843
aI1
aI15
aI32768
aI32770
aI4
aI32769
aI32768
aI10000
aI8
aI32769
aI1239
aI1
aI32768
aI843
aI16
aI32768
aI30000
aI15
aI32770
aI32768
aI4
aI32769
aI32770
aI30000
aI8
aI32769
aI1262
aI17
aI1723
aI15
aI32768
aI6068
aI4
aI32769
aI32768
aI11
aI8
aI32769
aI1239
aI9
aI32770
aI6068
aI1
aI15
aI32768
aI32770
aI4
aI32769
aI32768
aI116
aI8
aI32769
aI1239
aI16
aI32770
aI84
aI15
aI32768
aI32770
aI4
aI32769
aI32768
aI116
aI7
aI32769
aI1262
aI4
aI32769
aI32768
aI84
aI8
aI32769
aI1262
aI16
aI937
aI21
aI16
aI938
aI7
aI21
aI7
aI19
aI978
aI19
aI119
aI19
aI109
aI19
aI101
aI19
aI109
aI19
aI32
aI19
aI111
aI19
aI112
aI19
aI119
aI19
aI114
aI19
aI105
aI19
aI116
aI19
aI101
aI19
aI32
aI19
aI102
aI19
aI97
aI19
aI105
aI19
aI108
aI19
aI10
aI0
aI9
aI32769
aI10
aI6080
aI9
aI32769
aI32769
aI1
aI15
aI32770
aI6116
aI9
aI32770
aI32770
aI6116
aI1
aI32768
aI6116
aI9
aI32768
aI32768
aI1
aI5
aI32771
aI32768
aI32770
aI7
aI32771
aI1023
aI15
aI32772
aI32768
aI16
aI32769
aI32772
aI9
aI32768
aI32768
aI1
aI9
aI32769
aI32769
aI1
aI6
aI1000
aI15
aI32768
aI6080
aI15
aI32769
aI6099
aI9
aI32768
aI32768
aI32769
aI9
aI32768
aI32768
aI1
aI16
aI6080
aI32768
aI16
aI6099
aI44
aI1
aI32768
aI6080
aI17
aI1518
aI2
aI32768
aI2
aI32769
aI2
aI32770
aI1
aI32768
aI26851
aI1
aI32769
aI1531
aI9
aI32770
aI14051
aI7187
aI17
aI1458
aI3
aI32770
aI3
aI32769
aI3
aI32768
aI6
aI2734
aI19
aI110
aI19
aI111
aI19
aI32
aI19
aI106
aI19
aI116
aI19
aI47
aI19
aI106
aI19
aI102
aI19
aI10
aI0
aI19
aI110
aI19
aI111
aI19
aI110
aI19
aI122
aI19
aI101
aI19
aI114
aI19
aI111
aI19
aI32
aI19
aI114
aI19
aI101
aI19
aI103
aI19
aI10
aI0
aI19
aI110
aI19
aI111
aI19
aI32
aI19
aI115
aI19
aI101
aI19
aI116
aI19
aI32
aI19
aI111
aI19
aI112
aI19
aI10
aI0
aI19
aI110
aI19
aI111
aI19
aI32
aI19
aI103
aI19
aI116
aI19
aI32
aI19
aI111
aI19
aI112
aI19
aI10
aI0
aI19
aI110
aI19
aI111
aI19
aI32
aI19
aI115
aI19
aI116
aI19
aI97
aI19
aI99
aI19
aI107
aI19
aI10
aI0
aI19
aI110
aI19
aI111
aI19
aI32
aI19
aI98
aI19
aI105
aI19
aI116
aI19
aI119
aI19
aI105
aI19
aI115
aI19
aI101
aI19
aI32
aI19
aI97
aI19
aI110
aI19
aI100
aI19
aI10
aI0
aI19
aI110
aI19
aI111
aI19
aI32
aI19
aI98
aI19
aI105
aI19
aI116
aI19
aI119
aI19
aI105
aI19
aI115
aI19
aI101
aI19
aI32
aI19
aI110
aI19
aI111
aI19
aI116
aI19
aI10
aI0
aI19
aI110
aI19
aI111
aI19
aI32
aI19
aI114
aI19
aI109
aI19
aI101
aI19
aI109
aI19
aI32
aI19
aI111
aI19
aI112
aI19
aI10
aI0
aI19
aI110
aI19
aI111
aI19
aI32
aI19
aI119
aI19
aI109
aI19
aI101
aI19
aI109
aI19
aI32
aI19
aI111
aI19
aI112
aI19
aI10
aI0
aI6
aI708
aI6
aI731
aI19
aI110
aI19
aI111
aI19
aI32
aI19
aI99
aI19
aI97
aI19
aI108
aI19
aI108
aI19
aI32
aI19
aI111
aI19
aI112
aI19
aI10
aI0
aI19
aI110
aI19
aI111
aI19
aI32
aI19
aI109
aI19
aI111
aI19
aI100
aI19
aI117
aI19
aI108
aI19
aI111
aI19
aI32
aI19
aI109
aI19
aI97
aI19
aI116
aI19
aI104
aI19
aI32
aI19
aI100
aI19
aI117
aI19
aI114
aI19
aI105
aI19
aI110
aI19
aI103
aI19
aI32
aI19
aI97
aI19
aI100
aI19
aI100
aI19
aI32
aI19
aI111
aI19
aI114
aI19
aI32
aI19
aI109
aI19
aI117
aI19
aI108
aI19
aI116
aI19
aI10
aI0
aI19
aI110
aI19
aI111
aI19
aI116
aI19
aI32
aI19
aI104
aI19
aI105
aI19
aI116
aI19
aI99
aI19
aI104
aI19
aI104
aI19
aI105
aI19
aI107
aI19
aI105
aI19
aI110
aI19
aI103
aI19
aI10
aI0
aI19
aI110
aI19
aI111
aI19
aI32
aI19
aI109
aI19
aI117
aI19
aI108
aI19
aI116
aI19
aI32
aI19
aI111
aI19
aI112
aI19
aI10
aI0
aI19
aI110
aI19
aI111
aI19
aI32
aI19
aI109
aI19
aI111
aI19
aI100
aI19
aI32
aI19
aI111
aI19
aI112
aI19
aI10
aI0
aI2
aI32768
aI2
aI32771
aI2
aI32772
aI2
aI32773
aI2
aI32774
aI1
aI32774
aI32768
aI1
aI32773
aI32769
aI15
aI32772
aI32768
aI1
aI32769
aI0
aI9
aI32771
aI1
aI32769
aI5
aI32768
aI32771
aI32772
aI7
aI32768
aI1507
aI9
aI32771
aI32771
aI32774
aI15
aI32768
aI32771
aI17
aI32773
aI9
aI32769
aI32769
aI1
aI7
aI32769
aI1480
aI3
aI32774
aI3
aI32773
aI3
aI32772
aI3
aI32771
aI3
aI32768
aI18
aI2
aI32769
aI1
aI32769
aI1528
aI17
aI1458
aI3
aI32769
aI18
aI19
aI32768
aI18
aI2
aI32769
aI1
aI32769
aI32770
aI17
aI2125
aI19
aI32768
aI3
aI32769
aI18
aI2
aI32769
aI2
aI32771
aI15
aI32771
aI32768
aI8
aI32771
aI1563
aI17
aI1458
aI7
aI32769
aI1563
aI1
aI32768
aI32770
aI6
aI1566
aI1
aI32768
aI32767
aI3
aI32771
aI3
aI32769
aI18
aI2
aI32769
aI2
aI32770
aI1
aI32770
aI32769
aI1
aI32769
aI1605
aI17
aI1543
aI3
aI32770
aI3
aI32769
aI18
aI2
aI32769
aI2
aI32770
aI1
aI32770
aI32769
aI1
aI32769
aI1648
aI17
aI1543
aI3
aI32770
aI3
aI32769
aI18
aI4
aI32768
aI32768
aI32770
aI8
aI32768
aI1618
aI1
aI32770
aI32769
aI1
aI32769
aI32767
aI18
aI2
aI32771
aI9
aI32771
aI32770
aI1
aI9
aI32771
aI32771
aI32769
aI15
aI32771
aI32771
aI4
aI32771
aI32768
aI32771
aI7
aI32771
aI1645
aI1
aI32770
aI32769
aI1
aI32769
aI32767
aI3
aI32771
aI18
aI2
aI32769
aI1
aI32769
aI32770
aI17
aI1667
aI3
aI32769
aI8
aI32768
aI1666
aI1
aI32770
aI32769
aI1
aI32769
aI32767
aI18
aI2
aI32769
aI2
aI32770
aI2
aI32771
aI2
aI32772
aI15
aI32771
aI32768
aI15
aI32772
aI32769
aI4
aI32770
aI32771
aI32772
aI8
aI32770
aI1711
aI13
aI32770
aI32771
aI32772
aI8
aI32770
aI1706
aI1
aI32770
aI32769
aI1
aI32769
aI1619
aI17
aI1458
aI8
aI32769
aI1711
aI1
aI32768
aI1
aI6
aI1714
aI1
aI32768
aI0
aI3
aI32772
aI3
aI32771
aI3
aI32770
aI3
aI32769
aI18
aI2
aI32768
aI2
aI32769
aI1
aI32769
aI6068
aI15
aI32768
aI32769
aI2
aI32769
aI10
aI32769
aI32769
aI32769
aI17
aI2125
aI1
aI32769
aI16724
aI17
aI2125
aI3
aI32769
aI16
aI32769
aI32768
aI9
aI32769
aI32769
aI1
aI4
aI32768
aI30050
aI32769
aI8
aI32768
aI1730
aI3
aI32769
aI3
aI32768
aI18
aI2
aI32768
aI2
aI32770
aI2
aI32771
aI2
aI32772
aI2
aI32773
aI9
aI32770
aI32769
aI32768
aI1
aI32768
aI32769
aI1
aI32773
aI0
aI9
aI32768
aI32768
aI1
aI5
aI32771
aI32768
aI32770
aI7
aI32771
aI1816
aI20
aI32772
aI4
aI32771
aI32772
aI10
aI7
aI32771
aI1816
aI16
aI32768
aI32772
aI9
aI32773
aI32773
aI1
aI6
aI1787
aI16
aI32769
aI32773
aI4
aI32771
aI32772
aI10
aI7
aI32771
aI1830
aI20
aI32772
aI6
aI1819
aI3
aI32773
aI3
aI32772
aI3
aI32771
aI3
aI32770
aI3
aI32768
aI18
aI2
aI32771
aI2
aI32772
aI2
aI32773
aI2
aI32774
aI1
aI32774
aI1
aI9
aI32772
aI32771
aI32774
aI15
aI32772
aI32772
aI9
aI32773
aI6125
aI32774
aI16
aI32773
aI32772
aI9
aI32774
aI32774
aI1
aI15
aI32773
aI6125
aI5
aI32772
aI32774
aI32773
aI8
aI32772
aI1852
aI1
aI32771
aI0
aI1
aI32772
aI0
aI15
aI32773
aI6125
aI11
aI32773
aI32772
aI32773
aI9
aI32773
aI32773
aI6125
aI9
aI32773
aI32773
aI1
aI15
aI32774
aI32773
aI10
aI32774
aI32774
aI5249
aI9
aI32774
aI32774
aI12345
aI16
aI32773
aI32774
aI2
aI32768
aI2
aI32769
aI1
aI32769
aI32774
aI17
aI2125
aI1
aI32774
aI32768
aI3
aI32769
aI3
aI32768
aI15
aI32773
aI32769
aI11
aI32774
aI32774
aI32773
aI9
aI32774
aI32774
aI1
aI5
aI32773
aI32774
aI32770
aI7
aI32773
aI1952
aI1
aI32771
aI1
aI9
aI32774
aI32774
aI32769
aI15
aI32774
aI32774
aI9
aI32772
aI32772
aI1
aI9
aI32773
aI32772
aI6129
aI16
aI32773
aI32774
aI15
aI32773
aI6129
aI4
aI32773
aI32772
aI32773
aI8
aI32773
aI1886
aI8
aI32771
aI1880
aI2
aI32768
aI1
aI32768
aI6129
aI17
aI1518
aI3
aI32768
aI3
aI32774
aI3
aI32773
aI3
aI32772
aI3
aI32771
aI18
aI2
aI32768
aI2
aI32769
aI2
aI32770
aI2
aI32771
aI2
aI32772
aI2
aI32773
aI1
aI32770
aI1
aI1
aI32773
aI0
aI8
aI32768
aI2092
aI4
aI32772
aI32770
aI10000
aI1
aI32771
aI32768
aI7
aI32772
aI2040
aI10
aI32769
aI32770
aI10
aI11
aI32771
aI32768
aI32769
aI1
aI32772
aI0
aI10
aI32770
aI32770
aI32767
aI8
aI32771
aI2060
aI9
aI32772
aI32772
aI1
aI9
aI32771
aI32771
aI32770
aI6
aI2047
aI10
aI32770
aI32770
aI32767
aI10
aI32771
aI32772
aI32770
aI10
aI32771
aI32771
aI32767
aI9
aI32768
aI32768
aI32771
aI9
aI32772
aI32772
aI48
aI10
aI32770
aI32770
aI10
aI9
aI32773
aI32773
aI1
aI2
aI32772
aI6
aI2019
aI7
aI32773
aI2099
aI19
aI48
aI6
aI2112
aI8
aI32773
aI2112
aI3
aI32768
aI19
aI32768
aI9
aI32773
aI32773
aI32767
aI6
aI2099
aI3
aI32773
aI3
aI32772
aI3
aI32771
aI3
aI32770
aI3
aI32769
aI3
aI32768
aI18
aI2
aI32769
aI2
aI32770
aI12
aI32770
aI32768
aI32769
aI14
aI32770
aI32770
aI13
aI32768
aI32768
aI32769
aI12
aI32768
aI32768
aI32770
aI3
aI32770
aI3
aI32769
aI18
aI9
aI32768
aI32768
aI32769
aI5
aI32769
aI32769
aI32768
aI18
aI2
aI32770
aI5
aI32770
aI32769
aI32768
aI10
aI32769
aI32769
aI32767
aI9
aI32768
aI32768
aI32769
aI1
aI32769
aI32770
aI3
aI32770
aI18
aI8
aI32768
aI2241
aI8
aI32769
aI2241
aI2
aI32770
aI2
aI32771
aI5
aI32770
aI32769
aI32768
aI7
aI32770
aI2204
aI1
aI32770
aI32768
aI1
aI32768
aI32769
aI1
aI32769
aI32770
aI1
aI32770
aI32768
aI1
aI32768
aI0
aI9
aI32768
aI32768
aI32769
aI5
aI32771
aI32769
aI32768
aI7
aI32771
aI2233
aI9
aI32770
aI32770
aI32767
aI7
aI32770
aI2210
aI1
aI32769
aI0
aI6
aI2236
aI1
aI32769
aI1
aI3
aI32771
aI3
aI32770
aI18
aI1
aI32768
aI0
aI1
aI32769
aI0
aI18
aI2
aI32769
aI2
aI32770
aI8
aI32769
aI2276
aI9
aI32769
aI32769
aI32767
aI12
aI32770
aI32768
aI16384
aI10
aI32768
aI32768
aI2
aI8
aI32770
aI2252
aI13
aI32768
aI32768
aI1
aI6
aI2252
aI3
aI32770
aI3
aI32769
aI18
aI2
aI32769
aI5
aI32769
aI32768
aI14
aI7
aI32769
aI2309
aI1
aI32769
aI32768
aI1
aI32768
aI1
aI8
aI32769
aI2312
aI9
aI32769
aI32769
aI32767
aI10
aI32768
aI32768
aI2
aI6
aI2296
aI1
aI32768
aI32767
aI3
aI32769
aI18
aI6
aI2734
aI6142
aI6152
aI26900
aI26903
aI0
aI6350
aI6360
aI26906
aI26908
aI0
aI6441
aI6451
aI26910
aI26913
aI0
aI6597
aI6607
aI26916
aI26919
aI0
aI6711
aI6721
aI26922
aI26925
aI0
aI6922
aI6934
aI26928
aI26931
aI0
aI7070
aI7095
aI26934
aI26936
aI0
aI7270
aI7282
aI26938
aI26941
aI0
aI7502
aI7514
aI26944
aI26946
aI0
aI7616
aI7628
aI26948
aI26951
aI0
aI7799
aI7807
aI26954
aI26958
aI0
aI8007
aI26962
aI26965
aI26968
aI0
aI8163
aI8179
aI26971
aI26977
aI3742
aI8332
aI8348
aI26983
aI26987
aI3746
aI8421
aI8437
aI26991
aI26995
aI3756
aI8510
aI8526
aI26999
aI27004
aI3766
aI8673
aI8689
aI27009
aI27013
aI3776
aI8762
aI8778
aI27017
aI27022
aI3786
aI8932
aI8948
aI27027
aI27031
aI3796
aI9021
aI9037
aI27035
aI27037
aI3806
aI9098
aI9114
aI27039
aI27041
aI0
aI9175
aI9191
aI27043
aI27046
aI3656
aI9259
aI9272
aI27049
aI27052
aI3656
aI9397
aI9410
aI27055
aI27058
aI3656
aI9455
aI9468
aI27061
aI27064
aI3656
aI9513
aI9526
aI27067
aI27070
aI3656
aI9637
aI9643
aI27073
aI27076
aI0
aI9903
aI9909
aI27079
aI27082
aI0
aI10103
aI10109
aI27085
aI27090
aI0
aI5
aI10425
aI10431
aI27107
aI27109
aI3893
aI10605
aI10611
aI27111
aI27114
aI0
aI10760
aI10766
aI27117
aI27119
aI0
aI10892
aI10898
aI27121
aI27124
aI0
aI11086
aI11092
aI27127
aI27129
aI0
aI11267
aI11288
aI27131
aI27133
aI0
aI11552
aI11573
aI27135
aI27137
aI0
aI11726
aI11732
aI27139
aI27143
aI0
aI11919
aI11925
aI27147
aI27150
aI0
aI12199
aI12205
aI27153
aI27156
aI0
aI12459
aI12475
aI27159
aI27163
aI0
aI12691
aI12707
aI27167
aI27171
aI0
aI12847
aI12863
aI27175
aI27178
aI0
aI13106
aI13122
aI27181
aI27184
aI0
aI13420
aI13436
aI27187
aI27190
aI0
aI13694
aI13708
aI27193
aI27196
aI0
aI13941
aI13955
aI27199
aI27202
aI0
aI14090
aI14104
aI27205
aI27209
aI0
aI14444
aI14465
aI27213
aI27215
aI0
aI14634
aI14648
aI27217
aI27220
aI4611
aI14765
aI14776
aI27223
aI27226
aI3958
aI14916
aI14927
aI27229
aI27233
aI3975
aI15074
aI15085
aI27237
aI27241
aI3992
aI15230
aI15241
aI27245
aI27249
aI4009
aI15505
aI15516
aI27253
aI27257
aI4028
aI15664
aI15675
aI27261
aI27266
aI4045
aI15826
aI15837
aI27271
aI27276
aI4062
aI15991
aI16002
aI27281
aI27285
aI4079
aI16148
aI16159
aI27289
aI27293
aI4096
aI16305
aI16316
aI27297
aI27302
aI4113
aI16469
aI16480
aI27307
aI27312
aI4130
aI16631
aI16642
aI27317
aI27321
aI4147
aI16791
aI16809
aI27325
aI27329
aI4164
aI16971
aI16982
aI27333
aI27337
aI4167
aI17127
aI17138
aI27341
aI27345
aI4184
aI17285
aI17296
aI27349
aI27352
aI4201
aI17436
aI17442
aI27355
aI27357
aI4690
aI17661
aI17693
aI27359
aI27362
aI0
aI17806
aI17838
aI27365
aI27368
aI0
aI17949
aI17967
aI27371
aI27375
aI0
aI18055
aI18061
aI27379
aI27380
aI3701
aI18062
aI18069
aI2317
aI4720
aI18206
aI18220
aI32767
aI0
aI18344
aI18352
aI32767
aI4885
aI18468
aI18480
aI0
aI4931
aI18568
aI18572
aI32767
aI4799
aI18618
aI18627
aI32767
aI5360
aI18691
aI18705
aI32767
aI5377
aI18769
aI18780
aI32767
aI5394
aI18852
aI18865
aI32767
aI5411
aI18953
aI18963
aI32767
aI5428
aI19029
aI19040
aI0
aI5445
aI19113
aI19127
aI2488
aI0
aI19192
aI19196
aI2623
aI0
aI19258
aI19265
aI2643
aI5721
aI19384
aI19397
aI2488
aI0
aI22093
aI22101
aI2553
aI0
aI2463
aI2463
aI2
aI32768
aI2
aI32769
aI2
aI32770
aI2
aI32771
aI15
aI32769
aI2732
aI15
aI32768
aI2733
aI4
aI32768
aI32768
aI32769
aI7
aI32768
aI2770
aI15
aI32768
aI2732
aI9
aI32768
aI32768
aI4
aI15
aI32768
aI32768
aI8
aI32768
aI2770
aI17
aI32768
aI15
aI32769
aI2732
aI15
aI32768
aI2733
aI4
aI32768
aI32768
aI32769
aI7
aI32768
aI2791
aI1
aI32768
aI25974
aI16
aI32768
aI0
aI17
aI2964
aI16
aI2733
aI32769
aI2
aI32768
aI2
aI32769
aI2
aI32770
aI1
aI32768
aI27414
aI1
aI32769
aI1531
aI9
aI32770
aI15024
aI9909
aI17
aI1458
aI3
aI32770
aI3
aI32769
aI3
aI32768
aI1
aI32768
aI32
aI1
aI32769
aI25974
aI17
aI1767
aI19
aI10
aI19
aI10
aI1
aI32768
aI25974
aI1
aI32769
aI32
aI17
aI1571
aI4
aI32769
aI32768
aI32767
aI8
aI32769
aI2848
aI15
aI32768
aI25974
aI1
aI32770
aI32768
aI15
aI32769
aI25974
aI2
aI32769
aI16
aI25974
aI32770
aI1
aI32768
aI27398
aI1
aI32769
aI25974
aI17
aI1588
aI3
aI32769
aI16
aI25974
aI32769
aI4
aI32769
aI32768
aI32767
aI8
aI32769
aI2885
aI1
aI32768
aI0
aI1
aI32770
aI0
aI9
aI32769
aI27406
aI1
aI9
aI32769
aI32769
aI32768
aI15
aI32769
aI32769
aI15
aI32771
aI25974
aI4
aI32771
aI32771
aI32770
aI7
aI32771
aI2944
aI10
aI32768
aI32770
aI32767
aI15
aI32771
aI25974
aI9
aI32771
aI32768
aI32771
aI8
aI32770
aI2924
aI9
aI32771
aI32771
aI32767
aI11
aI32771
aI32771
aI32
aI9
aI32768
aI25974
aI32770
aI8
aI32770
aI2939
aI9
aI32768
aI32768
aI1
aI16
aI32768
aI32771
aI6
aI2950
aI1
aI32768
aI25974
aI16
aI32768
aI0
aI17
aI32769
aI7
aI32769
aI2742
aI3
aI32771
aI3
aI32770
aI3
aI32769
aI3
aI32768
aI18
aI2
aI32768
aI2
aI32769
aI2
aI32770
aI15
aI32769
aI32768
aI8
aI32769
aI3032
aI17
aI5921
aI8
aI32768
aI3006
aI2
aI32768
aI17
aI5990
aI1
aI32769
aI32768
aI3
aI32768
aI8
aI32769
aI3006
aI9
aI32769
aI32768
aI1
aI15
aI32768
aI32769
aI17
aI1518
aI19
aI10
aI6
aI3238
aI2
aI32768
aI2
aI32769
aI2
aI32770
aI1
aI32768
aI27432
aI1
aI32769
aI1531
aI9
aI32770
aI11103
aI20384
aI17
aI1458
aI3
aI32770
aI3
aI32769
aI3
aI32768
aI6
aI3238
aI15
aI32768
aI2732
aI2
aI32768
aI19
aI61
aI19
aI61
aI19
aI32
aI9
aI32768
aI32768
aI0
aI15
aI32768
aI32768
aI17
aI1518
aI19
aI32
aI19
aI61
aI19
aI61
aI19
aI10
aI3
aI32768
aI2
aI32768
aI9
aI32768
aI32768
aI1
aI15
aI32768
aI32768
aI15
aI32769
aI32768
aI4
aI32769
aI32769
aI2
aI8
aI32769
aI3104
aI2
aI32768
aI1
aI32768
aI2680
aI17
aI5990
aI1
aI32769
aI32768
aI3
aI32768
aI9
aI32768
aI32768
aI1
aI9
aI32768
aI32768
aI32769
aI15
aI32768
aI32768
aI17
aI1518
aI19
aI10
aI3
aI32768
aI2
aI32768
aI17
aI5823
aI8
aI32768
aI3146
aI2
aI32768
aI2
aI32769
aI2
aI32770
aI1
aI32768
aI27455
aI1
aI32769
aI1531
aI9
aI32770
aI4468
aI25979
aI17
aI1458
aI3
aI32770
aI3
aI32769
aI3
aI32768
aI15
aI32770
aI2732
aI17
aI5876
aI3
aI32768
aI2
aI32768
aI9
aI32768
aI32768
aI2
aI15
aI32768
aI32768
aI15
aI32768
aI32768
aI4
aI32770
aI32768
aI1
aI19
aI10
aI19
aI84
aI19
aI104
aI19
aI101
aI19
aI114
aI19
aI101
aI19
aI32
aI7
aI32770
aI3189
aI19
aI97
aI19
aI114
aI19
aI101
aI6
aI3193
aI19
aI105
aI19
aI115
aI19
aI32
aI17
aI2001
aI19
aI32
aI19
aI101
aI19
aI120
aI19
aI105
aI19
aI116
aI4
aI32770
aI32768
aI1
aI7
aI32770
aI3216
aI19
aI115
aI19
aI58
aI19
aI10
aI3
aI32768
aI2
aI32768
aI9
aI32768
aI32768
aI2
aI15
aI32768
aI32768
aI1
aI32769
aI5814
aI17
aI1458
aI3
aI32768
aI3
aI32770
aI3
aI32769
aI3
aI32768
aI18
aI2
aI32768
aI2
aI32769
aI2
aI32770
aI1
aI32769
aI32768
aI15
aI32768
aI2732
aI9
aI32768
aI32768
aI2
aI15
aI32768
aI32768
aI17
aI1588
aI4
aI32770
aI32768
aI32767
aI7
aI32770
aI3302
aI15
aI32770
aI2732
aI9
aI32770
aI32770
aI3
aI15
aI32770
aI32770
aI9
aI32770
aI32770
aI1
aI9
aI32770
aI32770
aI32768
aI15
aI32770
aI32770
aI16
aI2732
aI32770
aI16
aI2733
aI0
aI6
aI3326
aI2
aI32768
aI2
aI32769
aI2
aI32770
aI1
aI32768
aI27482
aI1
aI32769
aI1531
aI9
aI32770
aI4267
aI976
aI17
aI1458
aI3
aI32770
aI3
aI32769
aI3
aI32768
aI3
aI32770
aI3
aI32769
aI3
aI32768
aI18
aI2
aI32768
aI2
aI32768
aI2
aI32769
aI2
aI32770
aI1
aI32768
aI27532
aI1
aI32769
aI1531
aI9
aI32770
aI19272
aI9391
aI17
aI1458
aI3
aI32770
aI3
aI32769
aI3
aI32768
aI3
aI32768
aI18
aI2
aI32768
aI2
aI32770
aI2
aI32768
aI2
aI32769
aI2
aI32770
aI1
aI32768
aI28037
aI1
aI32769
aI1531
aI9
aI32770
aI14615
aI2915
aI17
aI1458
aI3
aI32770
aI3
aI32769
aI3
aI32768
aI1
aI32770
aI0
aI17
aI5876
aI3
aI32770
aI3
aI32768
aI18
aI2
aI32768
aI2
aI32769
aI2
aI32770
aI17
aI5921
aI8
aI32768
aI3457
aI9
aI32769
aI32768
aI2
aI15
aI32768
aI32769
aI15
aI32770
aI2732
aI4
aI32770
aI32768
aI32770
aI8
aI32770
aI3457
aI16
aI32769
aI0
aI2
aI32768
aI2
aI32769
aI2
aI32770
aI1
aI32768
aI28054
aI1
aI32769
aI1531
aI9
aI32770
aI636
aI638
aI17
aI1458
aI3
aI32770
aI3
aI32769
aI3
aI32768
aI6
aI3481
aI2
aI32768
aI2
aI32769
aI2
aI32770
aI1
aI32768
aI28062
aI1
aI32769
aI1531
aI9
aI32770
aI1852
aI7476
aI17
aI1458
aI3
aI32770
aI3
aI32769
aI3
aI32768
aI3
aI32770
aI3
aI32769
aI3
aI32768
aI18
aI2
aI32768
aI2
aI32769
aI17
aI5921
aI8
aI32768
aI3539
aI9
aI32769
aI32768
aI2
aI15
aI32768
aI32769
aI7
aI32768
aI3539
aI15
aI32768
aI2732
aI16
aI32769
aI32768
aI2
aI32768
aI2
aI32769
aI2
aI32770
aI1
aI32768
aI28090
aI1
aI32769
aI1531
aI9
aI32770
aI11711
aI445
aI17
aI1458
aI3
aI32770
aI3
aI32769
aI3
aI32768
aI6
aI3563
aI2
aI32768
aI2
aI32769
aI2
aI32770
aI1
aI32768
aI28100
aI1
aI32769
aI1531
aI9
aI32770
aI14516
aI6214
aI17
aI1458
aI3
aI32770
aI3
aI32769
aI3
aI32768
aI3
aI32769
aI3
aI32768
aI18
aI2
aI32768
aI2
aI32769
aI17
aI5921
aI8
aI32768
aI3601
aI9
aI32769
aI32768
aI2
aI15
aI32769
aI32769
aI7
aI32769
aI3601
aI9
aI32769
aI32768
aI3
aI15
aI32769
aI32769
aI8
aI32769
aI3627
aI17
aI32769
aI6
aI3651
aI2
aI32768
aI2
aI32769
aI2
aI32770
aI1
aI32768
aI28135
aI1
aI32769
aI1531
aI9
aI32770
aI1606
aI26550
aI17
aI1458
aI3
aI32770
aI3
aI32769
aI3
aI32768
aI6
aI3651
aI2
aI32768
aI2
aI32769
aI2
aI32770
aI1
aI32768
aI28170
aI1
aI32769
aI1531
aI9
aI32770
aI335
aI687
aI17
aI1458
aI3
aI32770
aI3
aI32769
aI3
aI32768
aI3
aI32769
aI3
aI32768
aI18
aI2
aI32768
aI2
aI32769
aI2
aI32770
aI1
aI32768
aI2680
aI17
aI5990
aI7
aI32768
aI3694
aI9
aI32768
aI2676
aI2
aI16
aI32768
aI32767
aI9
aI32768
aI2680
aI2
aI16
aI32768
aI32767
aI9
aI32768
aI2672
aI2
aI16
aI32768
aI32767
aI16
aI2732
aI2648
aI3
aI32770
aI3
aI32769
aI3
aI32768
aI18
aI2
aI32768
aI2
aI32769
aI2
aI32770
aI1
aI32768
aI28204
aI1
aI32769
aI1531
aI9
aI32770
aI18104
aI319
aI17
aI1458
aI3
aI32770
aI3
aI32769
aI3
aI32768
aI0
aI0
aI2
aI32769
aI15
aI32769
aI3726
aI13
aI32769
aI32769
aI32768
aI16
aI3726
aI32769
aI3
aI32769
aI18
aI16
aI3726
aI0
aI18
aI2
aI32768
aI1
aI32768
aI1
aI17
aI3727
aI3
aI32768
aI18
aI2
aI32768
aI1
aI32768
aI2
aI17
aI3727
aI3
aI32768
aI18
aI2
aI32768
aI1
aI32768
aI4
aI17
aI3727
aI3
aI32768
aI18
aI2
aI32768
aI1
aI32768
aI8
aI17
aI3727
aI3
aI32768
aI18
aI2
aI32768
aI1
aI32768
aI16
aI17
aI3727
aI3
aI32768
aI18
aI2
aI32768
aI1
aI32768
aI32
aI17
aI3727
aI3
aI32768
aI18
aI2
aI32768
aI2
aI32769
aI2
aI32770
aI2
aI32771
aI1
aI32768
aI64
aI17
aI3727
aI2
aI32768
aI2
aI32769
aI2
aI32770
aI1
aI32768
aI28236
aI1
aI32769
aI1531
aI9
aI32770
aI4857
aI6376
aI17
aI1458
aI3
aI32770
aI3
aI32769
aI3
aI32768
aI15
aI32768
aI3726
aI1
aI32769
aI25866
aI1
aI32770
aI32767
aI1
aI32771
aI28299
aI17
aI1841
aI2
aI32768
aI2
aI32769
aI2
aI32770
aI1
aI32768
aI28303
aI1
aI32769
aI1531
aI9
aI32770
aI17527
aI13042
aI17
aI1458
aI3
aI32770
aI3
aI32769
aI3
aI32768
aI16
aI2732
aI2417
aI3
aI32771
aI3
aI32770
aI3
aI32769
aI3
aI32768
aI18
aI2
aI32768
aI2
aI32769
aI15
aI32768
aI2462
aI15
aI32769
aI27101
aI4
aI32768
aI32768
aI32769
aI7
aI32768
aI3940
aI2
aI32768
aI2
aI32769
aI2
aI32770
aI1
aI32768
aI28347
aI1
aI32769
aI1531
aI9
aI32770
aI14034
aI16292
aI17
aI1458
aI3
aI32770
aI3
aI32769
aI3
aI32768
aI16
aI2732
aI2457
aI16
aI2733
aI2457
aI3
aI32769
aI3
aI32768
aI18
aI26007
aI26013
aI26017
aI2149
aI2158
aI2178
aI0
aI22
aI0
aI0
aI0
aI0
aI0
aI2
aI32768
aI2
aI32769
aI1
aI32768
aI2
aI1
aI32769
aI0
aI17
aI4218
aI3
aI32769
aI3
aI32768
aI18
aI2
aI32768
aI2
aI32769
aI1
aI32768
aI8
aI1
aI32769
aI1
aI17
aI4279
aI3
aI32769
aI3
aI32768
aI18
aI2
aI32768
aI2
aI32769
aI1
aI32768
aI1
aI1
aI32769
aI2
aI17
aI4218
aI3
aI32769
aI3
aI32768
aI18
aI2
aI32768
aI2
aI32769
aI1
aI32768
aI1
aI1
aI32769
aI3
aI17
aI4279
aI17
aI4533
aI3
aI32769
aI3
aI32768
aI18
aI2
aI32768
aI2
aI32769
aI1
aI32768
aI4
aI1
aI32769
aI4
aI17
aI4279
aI3
aI32769
aI3
aI32768
aI18
aI2
aI32768
aI2
aI32769
aI1
aI32768
aI2
aI1
aI32769
aI5
aI17
aI4218
aI3
aI32769
aI3
aI32768
aI18
aI2
aI32768
aI2
aI32769
aI1
aI32768
aI11
aI1
aI32769
aI6
aI17
aI4279
aI3
aI32769
aI3
aI32768
aI18
aI2
aI32768
aI2
aI32769
aI1
aI32768
aI2
aI1
aI32769
aI7
aI17
aI4218
aI3
aI32769
aI3
aI32768
aI18
aI2
aI32768
aI2
aI32769
aI1
aI32768
aI0
aI1
aI32769
aI8
aI17
aI4218
aI3
aI32769
aI3
aI32768
aI18
aI2
aI32768
aI2
aI32769
aI1
aI32768
aI4
aI1
aI32769
aI9
aI17
aI4279
aI3
aI32769
aI3
aI32768
aI18
aI2
aI32768
aI2
aI32769
aI1
aI32768
aI1
aI1
aI32769
aI10
aI17
aI4218
aI3
aI32769
aI3
aI32768
aI18
aI2
aI32768
aI2
aI32769
aI1
aI32768
aI18
aI1
aI32769
aI11
aI17
aI4279
aI3
aI32769
aI3
aI32768
aI18
aI17
aI4611
aI18
aI2
aI32768
aI2
aI32769
aI1
aI32768
aI1
aI1
aI32769
aI12
aI17
aI4218
aI3
aI32769
aI3
aI32768
aI18
aI2
aI32768
aI2
aI32769
aI1
aI32768
aI9
aI1
aI32769
aI13
aI17
aI4279
aI3
aI32769
aI3
aI32768
aI18
aI2
aI32768
aI2
aI32769
aI1
aI32768
aI2
aI1
aI32769
aI14
aI17
aI4218
aI3
aI32769
aI3
aI32768
aI18
aI2
aI32768
aI2
aI32769
aI2
aI32770
aI9
aI32770
aI2716
aI2
aI15
aI32770
aI32770
aI7
aI32770
aI4272
aI17
aI4405
aI16
aI3951
aI32768
aI9
aI32769
aI32768
aI3945
aI15
aI32769
aI32769
aI1
aI32768
aI26024
aI17
aI1518
aI1
aI32768
aI32769
aI17
aI1518
aI1
aI32768
aI26088
aI17
aI1518
aI1
aI32768
aI32769
aI17
aI1518
aI19
aI46
aI19
aI10
aI19
aI10
aI3
aI32770
aI3
aI32769
aI3
aI32768
aI18
aI2
aI32768
aI2
aI32769
aI2
aI32770
aI9
aI32770
aI2716
aI2
aI15
aI32770
aI32770
aI7
aI32770
aI4398
aI17
aI4405
aI2
aI32768
aI15
aI32768
aI3951
aI9
aI32769
aI32768
aI3945
aI15
aI32769
aI32769
aI1
aI32768
aI26122
aI17
aI1518
aI1
aI32768
aI32769
aI17
aI1518
aI1
aI32768
aI26170
aI17
aI1518
aI3
aI32768
aI1
aI32769
aI32768
aI15
aI32768
aI3952
aI15
aI32770
aI3951
aI9
aI32770
aI32770
aI3948
aI15
aI32770
aI32770
aI17
aI32770
aI7
aI32769
aI4391
aI15
aI32769
aI3952
aI16
aI3952
aI32768
aI5
aI32770
aI32768
aI32769
aI8
aI32770
aI4369
aI2
aI32768
aI1
aI32768
aI26235
aI17
aI1518
aI3
aI32768
aI5
aI32770
aI32769
aI32768
aI8
aI32770
aI4385
aI2
aI32768
aI1
aI32768
aI26267
aI17
aI1518
aI3
aI32768
aI19
aI10
aI19
aI10
aI6
aI4398
aI17
aI4660
aI1
aI32768
aI26299
aI17
aI1518
aI3
aI32770
aI3
aI32769
aI3
aI32768
aI18
aI2
aI32768
aI2
aI32769
aI2
aI32770
aI2
aI32771
aI2
aI32772
aI2
aI32773
aI15
aI32773
aI3953
aI5
aI32771
aI32773
aI29999
aI7
aI32771
aI4434
aI9
aI32773
aI32773
aI1
aI16
aI3953
aI32773
aI1
aI32771
aI32768
aI1
aI32772
aI32769
aI9
aI32768
aI32773
aI2
aI17
aI2281
aI15
aI32769
aI3954
aI13
aI32768
aI32769
aI32768
aI1
aI32769
aI32772
aI17
aI2248
aI16
aI3954
aI32768
aI1
aI32768
aI3955
aI9
aI32769
aI32773
aI2
aI1
aI32770
aI32772
aI17
aI4515
aI1
aI32768
aI3956
aI10
aI32769
aI32773
aI32773
aI10
aI32770
aI32772
aI32772
aI17
aI4515
aI1
aI32768
aI3957
aI1
aI32769
aI13
aI10
aI32770
aI32771
aI9
aI10
aI32770
aI32770
aI32770
aI17
aI4515
aI3
aI32773
aI3
aI32772
aI3
aI32771
aI3
aI32770
aI3
aI32769
aI3
aI32768
aI18
aI2
aI32768
aI15
aI32768
aI32768
aI17
aI2248
aI1
aI32769
aI32770
aI17
aI2125
aI3
aI32769
aI16
aI32769
aI32768
aI18
aI2
aI32768
aI9
aI32768
aI2716
aI2
aI15
aI32768
aI32768
aI7
aI32768
aI4608
aI1
aI32768
aI26321
aI17
aI1518
aI15
aI32768
aI3952
aI4
aI32768
aI32768
aI30
aI7
aI32768
aI4574
aI1
aI32768
aI26354
aI17
aI1518
aI1
aI32768
aI26398
aI17
aI1518
aI17
aI4660
aI6
aI4608
aI1
aI32768
aI26440
aI17
aI1518
aI15
aI32768
aI3954
aI9
aI32768
aI32768
aI1
aI7
aI32768
aI4596
aI1
aI32768
aI26484
aI17
aI1518
aI6
aI4565
aI1
aI32768
aI26584
aI17
aI1518
aI9
aI32768
aI2716
aI2
aI16
aI32768
aI32767
aI3
aI32768
aI18
aI2
aI32768
aI9
aI32768
aI2716
aI2
aI15
aI32768
aI32768
aI7
aI32768
aI4657
aI1
aI32768
aI26717
aI17
aI1518
aI15
aI32768
aI2732
aI4
aI32768
aI32768
aI2623
aI7
aI32768
aI4645
aI1
aI32768
aI26725
aI17
aI1518
aI6
aI4650
aI1
aI32768
aI26731
aI17
aI1518
aI1
aI32768
aI26737
aI17
aI1518
aI17
aI4660
aI3
aI32768
aI18
aI2
aI32768
aI16
aI3952
aI22
aI16
aI3953
aI0
aI16
aI3954
aI0
aI16
aI3955
aI0
aI16
aI3956
aI0
aI16
aI3957
aI0
aI9
aI32768
aI2716
aI2
aI16
aI32768
aI2623
aI3
aI32768
aI18
aI2
aI32768
aI9
aI32768
aI2716
aI2
aI15
aI32768
aI32768
aI4
aI32768
aI32768
aI32767
aI7
aI32768
aI4717
aI1
aI32768
aI26824
aI17
aI1518
aI16
aI2732
aI2578
aI16
aI2733
aI2578
aI3
aI32768
aI18
aI2
aI32768
aI2
aI32769
aI2
aI32770
aI2
aI32771
aI2
aI32768
aI2
aI32769
aI2
aI32770
aI1
aI32768
aI28369
aI1
aI32769
aI1531
aI9
aI32770
aI18727
aI5077
aI17
aI1458
aI3
aI32770
aI3
aI32769
aI3
aI32768
aI1
aI32768
aI4242
aI1
aI32769
aI25866
aI1
aI32770
aI32767
aI1
aI32771
aI28397
aI17
aI1841
aI2
aI32768
aI2
aI32769
aI2
aI32770
aI1
aI32768
aI28401
aI1
aI32769
aI1531
aI9
aI32770
aI3708
aI25091
aI17
aI1458
aI3
aI32770
aI3
aI32769
aI3
aI32768
aI3
aI32771
aI3
aI32770
aI3
aI32769
aI3
aI32768
aI18
aI2
aI32768
aI9
aI32768
aI2672
aI2
aI15
aI32768
aI32768
aI7
aI32768
aI4858
aI9
aI32768
aI2684
aI2
aI16
aI32768
aI32767
aI9
aI32768
aI2672
aI2
aI16
aI32768
aI32767
aI9
aI32768
aI2676
aI2
aI16
aI32768
aI0
aI2
aI32768
aI2
aI32769
aI2
aI32770
aI1
aI32768
aI28453
aI1
aI32769
aI1531
aI9
aI32770
aI825
aI3760
aI17
aI1458
aI3
aI32770
aI3
aI32769
aI3
aI32768
aI6
aI4882
aI2
aI32768
aI2
aI32769
aI2
aI32770
aI1
aI32768
aI28510
aI1
aI32769
aI1531
aI9
aI32770
aI5011
aI13398
aI17
aI1458
aI3
aI32770
aI3
aI32769
aI3
aI32768
aI3
aI32768
aI18
aI2
aI32768
aI9
aI32768
aI2676
aI2
aI16
aI32768
aI32767
aI9
aI32768
aI2680
aI2
aI16
aI32768
aI0
aI2
aI32768
aI2
aI32769
aI2
aI32770
aI1
aI32768
aI28569
aI1
aI32769
aI1531
aI9
aI32770
aI1364
aI4648
aI17
aI1458
aI3
aI32770
aI3
aI32769
aI3
aI32768
aI16
aI2733
aI0
aI3
aI32768
aI18
aI2
aI32768
aI9
aI32768
aI2676
aI2
aI16
aI32768
aI0
aI9
aI32768
aI2680
aI2
aI16
aI32768
aI32767
aI2
aI32768
aI2
aI32769
aI2
aI32770
aI1
aI32768
aI28595
aI1
aI32769
aI1531
aI9
aI32770
aI10750
aI1407
aI17
aI1458
aI3
aI32770
aI3
aI32769
aI3
aI32768
aI16
aI2733
aI0
aI3
aI32768
aI18
aI2
aI32770
aI2
aI32771
aI15
aI32770
aI2732
aI4
aI32770
aI32770
aI2457
aI7
aI32770
aI5017
aI2
aI32768
aI2
aI32769
aI2
aI32770
aI1
aI32768
aI28621
aI1
aI32769
aI1531
aI9
aI32770
aI389
aI4062
aI17
aI1458
aI3
aI32770
aI3
aI32769
aI3
aI32768
aI6
aI5336
aI9
aI32770
aI32768
aI2
aI16
aI32770
aI32767
aI15
aI32770
aI2462
aI9
aI32770
aI32770
aI27095
aI9
aI32770
aI32770
aI1
aI15
aI32770
aI32770
aI9
aI32771
aI2457
aI1
aI15
aI32771
aI32771
aI9
aI32771
aI32771
aI32770
aI9
aI32770
aI32769
aI48
aI16
aI32771
aI32770
aI15
aI32770
aI2462
aI9
aI32770
aI32770
aI27101
aI9
aI32770
aI32770
aI1
aI16
aI32770
aI32769
aI2
aI32768
aI2
aI32768
aI2
aI32769
aI2
aI32770
aI1
aI32768
aI28664
aI1
aI32769
aI1531
aI9
aI32770
aI5150
aI3538
aI17
aI1458
aI3
aI32770
aI3
aI32769
aI3
aI32768
aI3
aI32768
aI2
aI32768
aI9
aI32770
aI32768
aI0
aI15
aI32768
aI32770
aI17
aI1518
aI3
aI32768
aI2
aI32768
aI2
aI32768
aI2
aI32769
aI2
aI32770
aI1
aI32768
aI28679
aI1
aI32769
aI1531
aI9
aI32770
aI1613
aI2854
aI17
aI1458
aI3
aI32770
aI3
aI32769
aI3
aI32768
aI3
aI32768
aI15
aI32770
aI2462
aI9
aI32770
aI32770
aI1
aI16
aI2462
aI32770
aI15
aI32771
aI27101
aI4
aI32771
aI32770
aI32771
aI8
aI32771
aI5336
aI1
aI32768
aI0
aI9
aI32769
aI27101
aI1
aI15
aI32769
aI32769
aI9
aI32768
aI32768
aI32769
aI9
aI32769
aI27101
aI2
aI15
aI32769
aI32769
aI9
aI32770
aI27101
aI3
aI15
aI32770
aI32770
aI10
aI32770
aI32770
aI32770
aI10
aI32769
aI32769
aI32770
aI9
aI32768
aI32768
aI32769
aI9
aI32769
aI27101
aI4
aI15
aI32769
aI32769
aI10
aI32770
aI32769
aI32769
aI10
aI32770
aI32770
aI32769
aI9
aI32768
aI32768
aI32770
aI9
aI32769
aI27101
aI5
aI15
aI32769
aI32769
aI10
aI32769
aI32769
aI32767
aI9
aI32768
aI32768
aI32769
aI4
aI32769
aI32768
aI399
aI7
aI32769
aI5312
aI9
aI32770
aI2688
aI2
aI16
aI32770
aI2457
aI9
aI32770
aI2692
aI2
aI16
aI32770
aI2457
aI9
aI32770
aI2696
aI2
aI16
aI32770
aI2457
aI9
aI32770
aI2700
aI2
aI16
aI32770
aI2457
aI9
aI32770
aI2704
aI2
aI16
aI32770
aI2457
aI16
aI2462
aI0
aI1
aI32768
aI27095
aI1
aI32769
aI5341
aI17
aI1458
aI2
aI32768
aI2
aI32769
aI2
aI32770
aI1
aI32768
aI28710
aI1
aI32769
aI1531
aI9
aI32770
aI24248
aI1089
aI17
aI1458
aI3
aI32770
aI3
aI32769
aI3
aI32768
aI6
aI5336
aI2
aI32768
aI2
aI32769
aI2
aI32770
aI1
aI32768
aI28777
aI1
aI32769
aI1531
aI9
aI32770
aI482
aI29073
aI17
aI1458
aI3
aI32770
aI3
aI32769
aI3
aI32768
aI3
aI32771
aI3
aI32770
aI18
aI2
aI32770
aI9
aI32770
aI2457
aI1
aI15
aI32770
aI32770
aI9
aI32770
aI32770
aI32768
aI16
aI32770
aI95
aI3
aI32770
aI18
aI2
aI32768
aI2
aI32769
aI1
aI32768
aI2688
aI1
aI32769
aI2
aI17
aI4977
aI3
aI32769
aI3
aI32768
aI18
aI2
aI32768
aI2
aI32769
aI1
aI32768
aI2692
aI1
aI32769
aI3
aI17
aI4977
aI3
aI32769
aI3
aI32768
aI18
aI2
aI32768
aI2
aI32769
aI1
aI32768
aI2696
aI1
aI32769
aI5
aI17
aI4977
aI3
aI32769
aI3
aI32768
aI18
aI2
aI32768
aI2
aI32769
aI1
aI32768
aI2700
aI1
aI32769
aI7
aI17
aI4977
aI3
aI32769
aI3
aI32768
aI18
aI2
aI32768
aI2
aI32769
aI1
aI32768
aI2704
aI1
aI32769
aI9
aI17
aI4977
aI3
aI32769
aI3
aI32768
aI18
aI2
aI32768
aI2
aI32769
aI2
aI32770
aI8
aI32775
aI5605
aI2
aI32768
aI2
aI32769
aI2
aI32770
aI1
aI32768
aI28844
aI1
aI32769
aI1531
aI9
aI32770
aI8395
aI23079
aI17
aI1458
aI3
aI32770
aI3
aI32769
aI3
aI32768
aI21
aI21
aI21
aI21
aI21
aI1
aI32768
aI4
aI1
aI32769
aI1
aI17
aI6027
aI4
aI32769
aI32768
aI6
aI8
aI32769
aI5579
aI2
aI32768
aI2
aI32769
aI2
aI32770
aI1
aI32768
aI29014
aI1
aI32769
aI1531
aI9
aI32770
aI29918
aI643
aI17
aI1458
aI3
aI32770
aI3
aI32769
aI3
aI32768
aI1
aI32768
aI32775
aI1
aI32769
aI25866
aI1
aI32770
aI32767
aI2
aI32771
aI1
aI32771
aI29241
aI17
aI1841
aI3
aI32771
aI2
aI32768
aI2
aI32769
aI2
aI32770
aI1
aI32768
aI29245
aI1
aI32769
aI1531
aI9
aI32770
aI2820
aI3300
aI17
aI1458
aI3
aI32770
aI3
aI32769
aI3
aI32768
aI16
aI2732
aI2498
aI16
aI2733
aI0
aI9
aI32769
aI2708
aI2
aI16
aI32769
aI32767
aI6
aI5714
aI2
aI32768
aI2
aI32769
aI2
aI32770
aI1
aI32768
aI29400
aI1
aI32769
aI1531
aI9
aI32770
aI11647
aI16878
aI17
aI1458
aI3
aI32770
aI3
aI32769
aI3
aI32768
aI6
aI5714
aI2
aI32768
aI2
aI32769
aI2
aI32770
aI1
aI32768
aI29545
aI1
aI32769
aI1531
aI9
aI32770
aI7419
aI2428
aI17
aI1458
aI3
aI32770
aI3
aI32769
aI3
aI32768
aI1
aI32768
aI0
aI9
aI32770
aI1
aI27101
aI15
aI32769
aI32770
aI9
aI32768
aI32768
aI32769
aI10
aI32768
aI32768
aI31660
aI17
aI2125
aI15
aI32769
aI27101
aI9
aI32769
aI32769
aI27101
aI9
aI32770
aI32770
aI1
aI5
aI32769
aI32770
aI32769
aI8
aI32769
aI5636
aI1
aI32769
aI25866
aI1
aI32770
aI32767
aI2
aI32771
aI1
aI32771
aI29663
aI17
aI1841
aI3
aI32771
aI2
aI32768
aI2
aI32769
aI2
aI32770
aI1
aI32768
aI29667
aI1
aI32769
aI1531
aI9
aI32770
aI9237
aI1110
aI17
aI1458
aI3
aI32770
aI3
aI32769
aI3
aI32768
aI16
aI2732
aI2488
aI16
aI2733
aI0
aI6
aI5714
aI3
aI32770
aI3
aI32769
aI3
aI32768
aI18
aI2
aI32768
aI2
aI32769
aI2
aI32770
aI2
aI32771
aI2
aI32768
aI2
aI32769
aI2
aI32770
aI1
aI32768
aI29757
aI1
aI32769
aI1531
aI9
aI32770
aI16859
aI12678
aI17
aI1458
aI3
aI32770
aI3
aI32769
aI3
aI32768
aI15
aI32768
aI3955
aI15
aI32769
aI3956
aI17
aI2125
aI15
aI32769
aI3957
aI17
aI2125
aI1
aI32769
aI25919
aI1
aI32770
aI4
aI2
aI32771
aI1
aI32771
aI29942
aI17
aI1841
aI3
aI32771
aI2
aI32768
aI2
aI32769
aI2
aI32770
aI1
aI32768
aI29946
aI1
aI32769
aI1531
aI9
aI32770
aI9651
aI21302
aI17
aI1458
aI3
aI32770
aI3
aI32769
aI3
aI32768
aI3
aI32771
aI3
aI32770
aI3
aI32769
aI3
aI32768
aI18
aI19
aI45
aI19
aI32
aI17
aI1518
aI19
aI10
aI18
aI2
aI32769
aI2
aI32770
aI1
aI32768
aI27381
aI1
aI32769
aI5846
aI1
aI32770
aI0
aI17
aI1458
aI1
aI32768
aI32770
aI3
aI32770
aI3
aI32769
aI18
aI2
aI32771
aI2
aI32772
aI15
aI32771
aI2732
aI9
aI32772
aI32768
aI2
aI15
aI32772
aI32772
aI4
aI32771
aI32771
aI32772
aI8
aI32771
aI5871
aI9
aI32770
aI32770
aI1
aI3
aI32772
aI3
aI32771
aI18
aI2
aI32768
aI2
aI32769
aI1
aI32768
aI27381
aI1
aI32769
aI5893
aI17
aI1458
aI3
aI32769
aI3
aI32768
aI18
aI2
aI32771
aI9
aI32771
aI32768
aI2
aI15
aI32771
aI32771
aI4
aI32771
aI32770
aI32771
aI8
aI32771
aI5918
aI9
aI32768
aI32768
aI0
aI15
aI32768
aI32768
aI17
aI5814
aI3
aI32771
aI18
aI2
aI32769
aI2
aI32770
aI1
aI32770
aI32768
aI1
aI32768
aI27381
aI1
aI32769
aI5964
aI17
aI1543
aI4
aI32769
aI32768
aI32767
aI7
aI32769
aI5956
aI9
aI32769
aI27381
aI32768
aI9
aI32769
aI32769
aI1
aI15
aI32768
aI32769
aI6
aI5959
aI1
aI32768
aI0
aI3
aI32770
aI3
aI32769
aI18
aI2
aI32769
aI1
aI32769
aI32770
aI9
aI32768
aI32768
aI0
aI15
aI32768
aI32768
aI17
aI1667
aI3
aI32769
aI8
aI32768
aI5989
aI1
aI32770
aI32769
aI1
aI32769
aI32767
aI18
aI2
aI32769
aI2
aI32770
aI9
aI32768
aI32768
aI2
aI15
aI32768
aI32768
aI8
aI32768
aI6019
aI15
aI32769
aI2732
aI4
aI32769
aI32768
aI32769
aI7
aI32769
aI6019
aI1
aI32768
aI0
aI6
aI6022
aI1
aI32768
aI1
aI3
aI32770
aI3
aI32769
aI18
aI7
aI32768
aI6035
aI9
aI32768
aI32769
aI1
aI18
aI7
aI32769
aI6048
aI9
aI32768
aI32768
aI32767
aI1
aI32769
aI32775
aI17
aI6027
aI18
aI2
aI32768
aI9
aI32769
aI32769
aI32767
aI17
aI6027
aI1
aI32769
aI32768
aI3
aI32768
aI9
aI32768
aI32768
aI32767
aI17
aI6027
aI18
aI11
aI84
aI101
aI115
aI116
aI32
aI115
aI116
aI114
aI105
aI110
aI103
aI35
aI115
aI101
aI108
aI102
aI45
aI116
aI101
aI115
aI116
aI32
aI99
aI111
aI109
aI112
aI108
aI101
aI116
aI101
aI44
aI32
aI97
aI108
aI108
aI32
aI116
aI101
aI115
aI116
aI115
aI32
aI112
aI97
aI115
aI115
aI10
aI8
aI99
aI111
aI109
aI112
aI108
aI101
aI116
aI101
aI3
aI32154
aI9946
aI29685
aI12
aI116
aI112
aI73
aI83
aI117
aI108
aI98
aI98
aI113
aI103
aI69
aI122
aI9
aI70
aI111
aI111
aI116
aI104
aI105
aI108
aI108
aI115
aI183
aI89
aI111
aI117
aI32
aI102
aI105
aI110
aI100
aI32
aI121
aI111
aI117
aI114
aI115
aI101
aI108
aI102
aI32
aI115
aI116
aI97
aI110
aI100
aI105
aI110
aI103
aI32
aI97
aI116
aI32
aI116
aI104
aI101
aI32
aI98
aI97
aI115
aI101
aI32
aI111
aI102
aI32
aI97
aI110
aI32
aI101
aI110
aI111
aI114
aI109
aI111
aI117
aI115
aI32
aI109
aI111
aI117
aI110
aI116
aI97
aI105
aI110
aI46
aI32
aI32
aI65
aI116
aI32
aI105
aI116
aI115
aI32
aI98
aI97
aI115
aI101
aI32
aI116
aI111
aI32
aI116
aI104
aI101
aI32
aI110
aI111
aI114
aI116
aI104
aI44
aI32
aI116
aI104
aI101
aI114
aI101
aI32
aI105
aI115
aI32
aI97
aI32
aI109
aI97
aI115
aI115
aI105
aI118
aI101
aI32
aI100
aI111
aI111
aI114
aI119
aI97
aI121
aI46
aI32
aI32
aI65
aI32
aI115
aI105
aI103
aI110
aI32
aI110
aI101
aI97
aI114
aI98
aI121
aI32
aI114
aI101
aI97
aI100
aI115
aI32
aI34
aI75
aI101
aI101
aI112
aI32
aI111
aI117
aI116
aI33
aI32
aI32
aI68
aI101
aI102
aI105
aI110
aI105
aI116
aI101
aI108
aI121
aI32
aI110
aI111
aI32
aI116
aI114
aI101
aI97
aI115
aI117
aI114
aI101
aI32
aI119
aI105
aI116
aI104
aI105
aI110
aI33
aI34
aI7
aI100
aI111
aI111
aI114
aI119
aI97
aI121
aI5
aI115
aI111
aI117
aI116
aI104
aI9
aI70
aI111
aI111
aI116
aI104
aI105
aI108
aI108
aI115
aI74
aI65
aI115
aI32
aI121
aI111
aI117
aI32
aI98
aI101
aI103
aI105
aI110
aI32
aI116
aI111
aI32
aI108
aI101
aI97
aI118
aI101
aI44
aI32
aI121
aI111
aI117
aI32
aI102
aI101
aI101
aI108
aI32
aI116
aI104
aI101
aI32
aI117
aI114
aI103
aI101
aI32
aI102
aI111
aI114
aI32
aI97
aI100
aI118
aI101
aI110
aI116
aI117
aI114
aI101
aI32
aI112
aI117
aI108
aI108
aI105
aI110
aI103
aI32
aI121
aI111
aI117
aI32
aI98
aI97
aI99
aI107
aI46
aI46
aI46
aI5
aI110
aI111
aI114
aI116
aI104
aI9
aI68
aI97
aI114
aI107
aI32
aI99
aI97
aI118
aI101
aI133
aI84
aI104
aI105
aI115
aI32
aI115
aI101
aI101
aI109
aI115
aI32
aI116
aI111
aI32
aI98
aI101
aI32
aI116
aI104
aI101
aI32
aI109
aI111
aI117
aI116
aI104
aI32
aI111
aI102
aI32
aI97
aI32
aI100
aI101
aI101
aI112
aI32
aI99
aI97
aI118
aI101
aI46
aI32
aI32
aI65
aI115
aI32
aI121
aI111
aI117
aI32
aI112
aI101
aI101
aI114
aI32
aI110
aI111
aI114
aI116
aI104
aI32
aI105
aI110
aI116
aI111
aI32
aI116
aI104
aI101
aI32
aI100
aI97
aI114
aI107
aI110
aI101
aI115
aI115
aI44
aI32
aI121
aI111
aI117
aI32
aI116
aI104
aI105
aI110
aI107
aI32
aI121
aI111
aI117
aI32
aI104
aI101
aI97
aI114
aI32
aI116
aI104
aI101
aI32
aI101
aI99
aI104
aI111
aI101
aI115
aI32
aI111
aI102
aI32
aI98
aI97
aI116
aI115
aI32
aI100
aI101
aI101
aI112
aI101
aI114
aI32
aI119
aI105
aI116
aI104
aI105
aI110
aI46
aI5
aI110
aI111
aI114
aI116
aI104
aI5
aI115
aI111
aI117
aI116
aI104
aI9
aI68
aI97
aI114
aI107
aI32
aI99
aI97
aI118
aI101
aI91
aI84
aI104
aI101
aI32
aI99
aI97
aI118
aI101
aI32
aI105
aI115
aI32
aI115
aI111
aI109
aI101
aI119
aI104
aI97
aI116
aI32
aI110
aI97
aI114
aI114
aI111
aI119
aI32
aI104
aI101
aI114
aI101
aI44
aI32
aI97
aI110
aI100
aI32
aI116
aI104
aI101
aI32
aI108
aI105
aI103
aI104
aI116
aI32
aI102
aI114
aI111
aI109
aI32
aI116
aI104
aI101
aI32
aI100
aI111
aI111
aI114
aI119
aI97
aI121
aI32
aI116
aI111
aI32
aI116
aI104
aI101
aI32
aI115
aI111
aI117
aI116
aI104
aI32
aI105
aI115
aI32
aI113
aI117
aI105
aI116
aI101
aI32
aI100
aI105
aI109
aI46
aI5
aI110
aI111
aI114
aI116
aI104
aI5
aI115
aI111
aI117
aI116
aI104
aI9
aI68
aI97
aI114
aI107
aI32
aI99
aI97
aI118
aI101
aI187
aI84
aI104
aI101
aI32
aI99
aI97
aI118
aI101
aI32
aI97
aI99
aI111
aI117
aI115
aI116
aI105
aI99
aI115
aI32
aI100
aI114
aI97
aI109
aI97
aI116
aI105
aI99
aI97
aI108
aI108
aI121
aI32
aI99
aI104
aI97
aI110
aI103
aI101
aI32
aI97
aI115
aI32
aI121
aI111
aI117
aI32
aI102
aI105
aI110
aI100
aI32
aI121
aI111
aI117
aI114
aI115
aI101
aI108
aI102
aI32
aI97
aI116
aI32
aI97
aI32
aI108
aI101
aI103
aI100
aI101
aI32
aI97
aI98
aI111
aI118
aI101
aI32
aI97
aI32
aI108
aI97
aI114
aI103
aI101
aI32
aI99
aI104
aI97
aI115
aI109
aI46
aI32
aI32
aI84
aI104
aI101
aI114
aI101
aI32
aI105
aI115
aI32
aI98
aI97
aI114
aI101
aI108
aI121
aI32
aI101
aI110
aI111
aI117
aI103
aI104
aI32
aI108
aI105
aI103
aI104
aI116
aI32
aI104
aI101
aI114
aI101
aI32
aI116
aI111
aI32
aI110
aI111
aI116
aI105
aI99
aI101
aI32
aI97
aI32
aI114
aI111
aI112
aI101
aI32
aI98
aI114
aI105
aI100
aI103
aI101
aI32
aI108
aI101
aI97
aI100
aI105
aI110
aI103
aI32
aI111
aI117
aI116
aI32
aI105
aI110
aI116
aI111
aI32
aI116
aI104
aI101
aI32
aI100
aI97
aI114
aI107
aI32
aI101
aI109
aI112
aI116
aI105
aI110
aI101
aI115
aI115
aI46
aI6
aI98
aI114
aI105
aI100
aI103
aI101
aI5
aI115
aI111
aI117
aI116
aI104
aI11
aI82
aI111
aI112
aI101
aI32
aI98
aI114
aI105
aI100
aI103
aI101
aI121
aI84
aI104
aI105
aI115
aI32
aI114
aI111
aI112
aI101
aI32
aI98
aI114
aI105
aI100
aI103
aI101
aI32
aI99
aI114
aI101
aI97
aI107
aI115
aI32
aI97
aI115
aI32
aI121
aI111
aI117
aI32
aI119
aI97
aI108
aI107
aI32
aI97
aI108
aI111
aI110
aI103
aI32
aI105
aI116
aI46
aI32
aI32
aI89
aI111
aI117
aI32
aI97
aI114
aI101
aI110
aI39
aI116
aI32
aI115
aI117
aI114
aI101
aI32
aI104
aI111
aI119
aI32
aI111
aI108
aI100
aI32
aI105
aI116
aI32
aI105
aI115
aI44
aI32
aI111
aI114
aI32
aI119
aI104
aI101
aI116
aI104
aI101
aI114
aI32
aI105
aI116
aI32
aI99
aI97
aI110
aI32
aI101
aI118
aI101
aI110
aI32
aI115
aI117
aI112
aI112
aI111
aI114
aI116
aI32
aI121
aI111
aI117
aI114
aI32
aI119
aI101
aI105
aI103
aI104
aI116
aI46
aI8
aI99
aI111
aI110
aI116
aI105
aI110
aI117
aI101
aI4
aI98
aI97
aI99
aI107
aI24
aI70
aI97
aI108
aI108
aI105
aI110
aI103
aI32
aI116
aI104
aI114
aI111
aI117
aI103
aI104
aI32
aI116
aI104
aI101
aI32
aI97
aI105
aI114
aI33
aI169
aI65
aI115
aI32
aI121
aI111
aI117
aI32
aI99
aI111
aI110
aI116
aI105
aI110
aI117
aI101
aI32
aI97
aI108
aI111
aI110
aI103
aI32
aI116
aI104
aI101
aI32
aI98
aI114
aI105
aI100
aI103
aI101
aI44
aI32
aI105
aI116
aI32
aI115
aI110
aI97
aI112
aI115
aI33
aI32
aI32
aI89
aI111
aI117
aI32
aI116
aI114
aI121
aI32
aI116
aI111
aI32
aI103
aI114
aI97
aI98
aI32
aI116
aI104
aI101
aI32
aI98
aI114
aI105
aI100
aI103
aI101
aI44
aI32
aI98
aI117
aI116
aI32
aI105
aI116
aI32
aI101
aI118
aI97
aI100
aI101
aI115
aI32
aI121
aI111
aI117
aI114
aI32
aI103
aI114
aI97
aI115
aI112
aI32
aI105
aI110
aI32
aI116
aI104
aI101
aI32
aI100
aI97
aI114
aI107
aI110
aI101
aI115
aI115
aI46
aI32
aI32
aI89
aI111
aI117
aI32
aI97
aI114
aI101
aI32
aI112
aI108
aI117
aI109
aI109
aI101
aI116
aI105
aI110
aI103
aI32
aI113
aI117
aI105
aI99
aI107
aI108
aI121
aI32
aI100
aI111
aI119
aI110
aI119
aI97
aI114
aI100
aI32
aI105
aI110
aI116
aI111
aI32
aI116
aI104
aI101
aI32
aI99
aI104
aI97
aI115
aI109
aI46
aI46
aI46
aI4
aI100
aI111
aI119
aI110
aI11
aI77
aI111
aI115
aI115
aI32
aI99
aI97
aI118
aI101
aI114
aI110
aI209
aI89
aI111
aI117
aI32
aI97
aI114
aI101
aI32
aI115
aI116
aI97
aI110
aI100
aI105
aI110
aI103
aI32
aI105
aI110
aI32
aI97
aI32
aI108
aI97
aI114
aI103
aI101
aI32
aI99
aI97
aI118
aI101
aI114
aI110
aI32
aI102
aI117
aI108
aI108
aI32
aI111
aI102
aI32
aI98
aI105
aI111
aI108
aI117
aI109
aI105
aI110
aI101
aI115
aI99
aI101
aI110
aI116
aI32
aI109
aI111
aI115
aI115
aI46
aI32
aI32
aI73
aI116
aI32
aI109
aI117
aI115
aI116
aI32
aI104
aI97
aI118
aI101
aI32
aI98
aI114
aI111
aI107
aI101
aI110
aI32
aI121
aI111
aI117
aI114
aI32
aI102
aI97
aI108
aI108
aI33
aI32
aI32
aI84
aI104
aI101
aI32
aI99
aI97
aI118
aI101
aI114
aI110
aI32
aI101
aI120
aI116
aI101
aI110
aI100
aI115
aI32
aI116
aI111
aI32
aI116
aI104
aI101
aI32
aI101
aI97
aI115
aI116
aI32
aI97
aI110
aI100
aI32
aI119
aI101
aI115
aI116
aI59
aI32
aI97
aI116
aI32
aI116
aI104
aI101
aI32
aI119
aI101
aI115
aI116
aI32
aI101
aI110
aI100
aI44
aI32
aI121
aI111
aI117
aI32
aI116
aI104
aI105
aI110
aI107
aI32
aI121
aI111
aI117
aI32
aI115
aI101
aI101
aI32
aI97
aI32
aI112
aI97
aI115
aI115
aI97
aI103
aI101
aI32
aI108
aI101
aI97
aI100
aI105
aI110
aI103
aI32
aI111
aI117
aI116
aI32
aI111
aI102
aI32
aI116
aI104
aI101
aI32
aI99
aI97
aI118
aI101
aI114
aI110
aI46
aI4
aI119
aI101
aI115
aI116
aI4
aI101
aI97
aI115
aI116
aI11
aI77
aI111
aI115
aI115
aI32
aI99
aI97
aI118
aI101
aI114
aI110
aI96
aI89
aI111
aI117
aI32
aI97
aI114
aI101
aI32
aI115
aI116
aI97
aI110
aI100
aI105
aI110
aI103
aI32
aI105
aI110
aI32
aI97
aI32
aI108
aI97
aI114
aI103
aI101
aI32
aI99
aI97
aI118
aI101
aI114
aI110
aI32
aI102
aI117
aI108
aI108
aI32
aI111
aI102
aI32
aI98
aI105
aI111
aI108
aI117
aI109
aI105
aI110
aI101
aI115
aI99
aI101
aI110
aI116
aI32
aI109
aI111
aI115
aI115
aI46
aI32
aI32
aI84
aI104
aI101
aI32
aI99
aI97
aI118
aI101
aI114
aI110
aI32
aI101
aI120
aI116
aI101
aI110
aI100
aI115
aI32
aI116
aI111
aI32
aI116
aI104
aI101
aI32
aI119
aI101
aI115
aI116
aI46
aI4
aI119
aI101
aI115
aI116
aI11
aI77
aI111
aI115
aI115
aI32
aI99
aI97
aI118
aI101
aI114
aI110
aI157
aI89
aI111
aI117
aI32
aI97
aI114
aI101
aI32
aI115
aI116
aI97
aI110
aI100
aI105
aI110
aI103
aI32
aI105
aI110
aI32
aI97
aI32
aI108
aI97
aI114
aI103
aI101
aI32
aI99
aI97
aI118
aI101
aI114
aI110
aI32
aI102
aI117
aI108
aI108
aI32
aI111
aI102
aI32
aI98
aI105
aI111
aI108
aI117
aI109
aI105
aI110
aI101
aI115
aI99
aI101
aI110
aI116
aI32
aI109
aI111
aI115
aI115
aI46
aI32
aI32
aI84
aI104
aI101
aI32
aI99
aI97
aI118
aI101
aI114
aI110
aI32
aI101
aI120
aI116
aI101
aI110
aI100
aI115
aI32
aI116
aI111
aI32
aI116
aI104
aI101
aI32
aI101
aI97
aI115
aI116
aI46
aI32
aI32
aI84
aI104
aI101
aI114
aI101
aI32
aI105
aI115
aI32
aI97
aI32
aI99
aI114
aI101
aI118
aI105
aI115
aI101
aI32
aI105
aI110
aI32
aI116
aI104
aI101
aI32
aI114
aI111
aI99
aI107
aI115
aI32
aI119
aI104
aI105
aI99
aI104
aI32
aI111
aI112
aI101
aI110
aI115
aI32
aI105
aI110
aI116
aI111
aI32
aI97
aI32
aI112
aI97
aI115
aI115
aI97
aI103
aI101
aI46
aI4
aI101
aI97
aI115
aI116
aI7
aI112
aI97
aI115
aI115
aI97
aI103
aI101
aI7
aI80
aI97
aI115
aI115
aI97
aI103
aI101
aI176
aI89
aI111
aI117
aI32
aI97
aI114
aI101
aI32
aI105
aI110
aI32
aI97
aI32
aI99
aI114
aI101
aI118
aI105
aI115
aI101
aI32
aI111
aI110
aI32
aI116
aI104
aI101
aI32
aI119
aI101
aI115
aI116
aI32
aI119
aI97
aI108
aI108
aI32
aI111
aI102
aI32
aI116
aI104
aI101
aI32
aI109
aI111
aI115
aI115
aI32
aI99
aI97
aI118
aI101
aI114
aI110
aI46
aI32
aI32
aI65
aI32
aI100
aI97
aI114
aI107
aI32
aI112
aI97
aI115
aI115
aI97
aI103
aI101
aI32
aI108
aI101
aI97
aI100
aI115
aI32
aI102
aI117
aI114
aI116
aI104
aI101
aI114
aI32
aI119
aI101
aI115
aI116
aI46
aI32
aI32
aI84
aI104
aI101
aI114
aI101
aI32
aI105
aI115
aI32
aI97
aI32
aI108
aI97
aI100
aI100
aI101
aI114
aI32
aI104
aI101
aI114
aI101
aI32
aI119
aI104
aI105
aI99
aI104
aI32
aI108
aI101
aI97
aI100
aI115
aI32
aI100
aI111
aI119
aI110
aI32
aI105
aI110
aI116
aI111
aI32
aI97
aI32
aI115
aI109
aI97
aI108
aI108
aI101
aI114
aI44
aI32
aI109
aI111
aI115
aI115
aI45
aI102
aI105
aI108
aI108
aI101
aI100
aI32
aI99
aI97
aI118
aI101
aI114
aI110
aI32
aI98
aI101
aI108
aI111
aI119
aI46
aI6
aI99
aI97
aI118
aI101
aI114
aI110
aI6
aI108
aI97
aI100
aI100
aI101
aI114
aI8
aI100
aI97
aI114
aI107
aI110
aI101
aI115
aI115
aI7
aI80
aI97
aI115
aI115
aI97
aI103
aI101
aI57
aI73
aI116
aI32
aI105
aI115
aI32
aI112
aI105
aI116
aI99
aI104
aI32
aI98
aI108
aI97
aI99
aI107
aI46
aI32
aI32
aI89
aI111
aI117
aI32
aI97
aI114
aI101
aI32
aI108
aI105
aI107
aI101
aI108
aI121
aI32
aI116
aI111
aI32
aI98
aI101
aI32
aI101
aI97
aI116
aI101
aI110
aI32
aI98
aI121
aI32
aI97
aI32
aI103
aI114
aI117
aI101
aI46
aI75
aI89
aI111
aI117
aI32
aI102
aI101
aI101
aI108
aI32
aI116
aI104
aI97
aI116
aI32
aI121
aI111
aI117
aI114
aI32
aI108
aI105
aI103
aI104
aI116
aI32
aI115
aI111
aI117
aI114
aI99
aI101
aI32
aI105
aI115
aI32
aI109
aI111
aI114
aI101
aI32
aI116
aI104
aI97
aI110
aI32
aI115
aI117
aI102
aI102
aI105
aI99
aI105
aI101
aI110
aI116
aI32
aI116
aI111
aI32
aI107
aI101
aI101
aI112
aI32
aI103
aI114
aI117
aI101
aI115
aI32
aI97
aI119
aI97
aI121
aI46
aI8
aI99
aI111
aI110
aI116
aI105
aI110
aI117
aI101
aI4
aI98
aI97
aI99
aI107
aI15
aI84
aI119
aI105
aI115
aI116
aI121
aI32
aI112
aI97
aI115
aI115
aI97
aI103
aI101
aI115
aI123
aI89
aI111
aI117
aI32
aI97
aI114
aI101
aI32
aI105
aI110
aI32
aI97
aI32
aI109
aI97
aI122
aI101
aI32
aI111
aI102
aI32
aI116
aI119
aI105
aI115
aI116
aI121
aI32
aI108
aI105
aI116
aI116
aI108
aI101
aI32
aI112
aI97
aI115
aI115
aI97
aI103
aI101
aI115
aI44
aI32
aI97
aI108
aI108
aI32
aI100
aI105
aI109
aI108
aI121
aI32
aI108
aI105
aI116
aI32
aI98
aI121
aI32
aI109
aI111
aI114
aI101
aI32
aI98
aI105
aI111
aI108
aI117
aI109
aI105
aI110
aI101
aI115
aI99
aI101
aI110
aI116
aI32
aI109
aI111
aI115
aI115
aI46
aI32
aI32
aI84
aI104
aI101
aI114
aI101
aI32
aI105
aI115
aI32
aI97
aI32
aI108
aI97
aI100
aI100
aI101
aI114
aI32
aI104
aI101
aI114
aI101
aI32
aI108
aI101
aI97
aI100
aI105
aI110
aI103
aI32
aI117
aI112
aI46
aI6
aI108
aI97
aI100
aI100
aI101
aI114
aI5
aI110
aI111
aI114
aI116
aI104
aI5
aI115
aI111
aI117
aI116
aI104
aI4
aI101
aI97
aI115
aI116
aI4
aI119
aI101
aI115
aI116
aI15
aI84
aI119
aI105
aI115
aI116
aI121
aI32
aI112
aI97
aI115
aI115
aI97
aI103
aI101
aI115
aI55
aI89
aI111
aI117
aI32
aI97
aI114
aI101
aI32
aI105
aI110
aI32
aI97
aI32
aI116
aI119
aI105
aI115
aI116
aI121
aI32
aI109
aI97
aI122
aI101
aI32
aI111
aI102
aI32
aI108
aI105
aI116
aI116
aI108
aI101
aI32
aI112
aI97
aI115
aI115
aI97
aI103
aI101
aI115
aI44
aI32
aI97
aI108
aI108
aI32
aI97
aI108
aI105
aI107
aI101
aI46
aI5
aI110
aI111
aI114
aI116
aI104
aI5
aI115
aI111
aI117
aI116
aI104
aI4
aI119
aI101
aI115
aI116
aI15
aI84
aI119
aI105
aI115
aI116
aI121
aI32
aI112
aI97
aI115
aI115
aI97
aI103
aI101
aI115
aI55
aI89
aI111
aI117
aI32
aI97
aI114
aI101
aI32
aI105
aI110
aI32
aI97
aI32
aI109
aI97
aI122
aI101
aI32
aI111
aI102
aI32
aI108
aI105
aI116
aI116
aI108
aI101
aI32
aI116
aI119
aI105
aI115
aI116
aI121
aI32
aI112
aI97
aI115
aI115
aI97
aI103
aI101
aI115
aI44
aI32
aI97
aI108
aI108
aI32
aI97
aI108
aI105
aI107
aI101
aI46
aI5
aI110
aI111
aI114
aI116
aI104
aI5
aI115
aI111
aI117
aI116
aI104
aI4
aI101
aI97
aI115
aI116
aI15
aI84
aI119
aI105
aI115
aI116
aI121
aI32
aI112
aI97
aI115
aI115
aI97
aI103
aI101
aI115
aI124
aI89
aI111
aI117
aI32
aI97
aI114
aI101
aI32
aI105
aI110
aI32
aI97
aI32
aI109
aI97
aI122
aI101
aI32
aI111
aI102
aI32
aI97
aI108
aI105
aI107
aI101
aI32
aI108
aI105
aI116
aI116
aI108
aI101
aI32
aI112
aI97
aI115
aI115
aI97
aI103
aI101
aI115
aI44
aI32
aI97
aI108
aI108
aI32
aI116
aI119
aI105
aI115
aI116
aI121
aI46
aI10
aI10
aI84
aI104
aI101
aI32
aI112
aI97
aI115
aI115
aI97
aI103
aI101
aI32
aI116
aI111
aI32
aI116
aI104
aI101
aI32
aI101
aI97
aI115
aI116
aI32
aI108
aI111
aI111
aI107
aI115
aI32
aI118
aI101
aI114
aI121
aI32
aI100
aI97
aI114
aI107
aI59
aI32
aI121
aI111
aI117
aI32
aI116
aI104
aI105
aI110
aI107
aI32
aI121
aI111
aI117
aI32
aI104
aI101
aI97
aI114
aI32
aI97
aI32
aI71
aI114
aI117
aI101
aI46
aI5
aI110
aI111
aI114
aI116
aI104
aI5
aI115
aI111
aI117
aI116
aI104
aI4
aI119
aI101
aI115
aI116
aI4
aI101
aI97
aI115
aI116
aI15
aI84
aI119
aI105
aI115
aI116
aI121
aI32
aI112
aI97
aI115
aI115
aI97
aI103
aI101
aI115
aI55
aI89
aI111
aI117
aI32
aI97
aI114
aI101
aI32
aI105
aI110
aI32
aI97
aI32
aI108
aI105
aI116
aI116
aI108
aI101
aI32
aI109
aI97
aI122
aI101
aI32
aI111
aI102
aI32
aI116
aI119
aI105
aI115
aI116
aI121
aI32
aI112
aI97
aI115
aI115
aI97
aI103
aI101
aI115
aI44
aI32
aI97
aI108
aI108
aI32
aI97
aI108
aI105
aI107
aI101
aI46
aI5
aI110
aI111
aI114
aI116
aI104
aI5
aI115
aI111
aI117
aI116
aI104
aI4
aI101
aI97
aI115
aI116
aI15
aI84
aI119
aI105
aI115
aI116
aI121
aI32
aI112
aI97
aI115
aI115
aI97
aI103
aI101
aI115
aI131
aI89
aI111
aI117
aI32
aI97
aI114
aI101
aI32
aI105
aI110
aI32
aI97
aI32
aI116
aI119
aI105
aI115
aI116
aI121
aI32
aI97
aI108
aI105
aI107
aI101
aI32
aI111
aI102
aI32
aI108
aI105
aI116
aI116
aI108
aI101
aI32
aI112
aI97
aI115
aI115
aI97
aI103
aI101
aI115
aI44
aI32
aI97
aI108
aI108
aI32
aI109
aI97
aI122
aI101
aI46
aI10
aI10
aI84
aI104
aI101
aI32
aI101
aI97
aI115
aI116
aI32
aI112
aI97
aI115
aI115
aI97
aI103
aI101
aI32
aI97
aI112
aI112
aI101
aI97
aI114
aI115
aI32
aI118
aI101
aI114
aI121
aI32
aI100
aI97
aI114
aI107
aI59
aI32
aI121
aI111
aI117
aI32
aI102
aI101
aI101
aI108
aI32
aI108
aI105
aI107
aI101
aI108
aI121
aI32
aI116
aI111
aI32
aI98
aI101
aI32
aI101
aI97
aI116
aI101
aI110
aI32
aI98
aI121
aI32
aI97
aI32
aI71
aI114
aI117
aI101
aI46
aI5
aI110
aI111
aI114
aI116
aI104
aI5
aI115
aI111
aI117
aI116
aI104
aI4
aI119
aI101
aI115
aI116
aI4
aI101
aI97
aI115
aI116
aI15
aI84
aI119
aI105
aI115
aI116
aI121
aI32
aI112
aI97
aI115
aI115
aI97
aI103
aI101
aI115
aI55
aI89
aI111
aI117
aI32
aI97
aI114
aI101
aI32
aI105
aI110
aI32
aI97
aI32
aI109
aI97
aI122
aI101
aI32
aI111
aI102
aI32
aI97
aI108
aI105
aI107
aI101
aI32
aI116
aI119
aI105
aI115
aI116
aI121
aI32
aI112
aI97
aI115
aI115
aI97
aI103
aI101
aI115
aI44
aI32
aI97
aI108
aI108
aI32
aI108
aI105
aI116
aI116
aI108
aI101
aI46
aI5
aI110
aI111
aI114
aI116
aI104
aI4
aI101
aI97
aI115
aI116
aI5
aI115
aI111
aI117
aI116
aI104
aI15
aI84
aI119
aI105
aI115
aI116
aI121
aI32
aI112
aI97
aI115
aI115
aI97
aI103
aI101
aI115
aI55
aI89
aI111
aI117
aI32
aI97
aI114
aI101
aI32
aI105
aI110
aI32
aI97
aI32
aI109
aI97
aI122
aI101
aI32
aI111
aI102
aI32
aI116
aI119
aI105
aI115
aI116
aI121
aI32
aI108
aI105
aI116
aI116
aI108
aI101
aI32
aI112
aI97
aI115
aI115
aI97
aI103
aI101
aI115
aI44
aI32
aI97
aI108
aI108
aI32
aI97
aI108
aI105
aI107
aI101
aI46
aI4
aI119
aI101
aI115
aI116
aI15
aI84
aI119
aI105
aI115
aI116
aI121
aI32
aI112
aI97
aI115
aI115
aI97
aI103
aI101
aI115
aI55
aI89
aI111
aI117
aI32
aI97
aI114
aI101
aI32
aI105
aI110
aI32
aI97
aI32
aI109
aI97
aI122
aI101
aI32
aI111
aI102
aI32
aI116
aI119
aI105
aI115
aI116
aI121
aI32
aI108
aI105
aI116
aI116
aI108
aI101
aI32
aI112
aI97
aI115
aI115
aI97
aI103
aI101
aI115
aI44
aI32
aI97
aI108
aI108
aI32
aI97
aI108
aI105
aI107
aI101
aI46
aI4
aI119
aI101
aI115
aI116
aI15
aI84
aI119
aI105
aI115
aI116
aI121
aI32
aI112
aI97
aI115
aI115
aI97
aI103
aI101
aI115
aI55
aI89
aI111
aI117
aI32
aI97
aI114
aI101
aI32
aI105
aI110
aI32
aI97
aI32
aI116
aI119
aI105
aI115
aI116
aI121
aI32
aI109
aI97
aI122
aI101
aI32
aI111
aI102
aI32
aI108
aI105
aI116
aI116
aI108
aI101
aI32
aI112
aI97
aI115
aI115
aI97
aI103
aI101
aI115
aI44
aI32
aI97
aI108
aI108
aI32
aI97
aI108
aI105
aI107
aI101
aI46
aI5
aI110
aI111
aI114
aI116
aI104
aI5
aI115
aI111
aI117
aI116
aI104
aI12
aI68
aI97
aI114
aI107
aI32
aI112
aI97
aI115
aI115
aI97
aI103
aI101
aI114
aI89
aI111
aI117
aI32
aI97
aI114
aI101
aI32
aI105
aI110
aI32
aI97
aI32
aI110
aI97
aI114
aI114
aI111
aI119
aI32
aI112
aI97
aI115
aI115
aI97
aI103
aI101
aI46
aI32
aI32
aI84
aI104
aI101
aI114
aI101
aI32
aI105
aI115
aI32
aI100
aI97
aI114
aI107
aI110
aI101
aI115
aI115
aI32
aI116
aI111
aI32
aI116
aI104
aI101
aI32
aI119
aI101
aI115
aI116
aI44
aI32
aI98
aI117
aI116
aI32
aI121
aI111
aI117
aI32
aI99
aI97
aI110
aI32
aI98
aI97
aI114
aI101
aI108
aI121
aI32
aI115
aI101
aI101
aI32
aI97
aI32
aI103
aI108
aI111
aI119
aI105
aI110
aI103
aI32
aI111
aI112
aI101
aI110
aI105
aI110
aI103
aI32
aI116
aI111
aI32
aI116
aI104
aI101
aI32
aI101
aI97
aI115
aI116
aI46
aI4
aI119
aI101
aI115
aI116
aI4
aI101
aI97
aI115
aI116
aI12
aI68
aI97
aI114
aI107
aI32
aI112
aI97
aI115
aI115
aI97
aI103
aI101
aI34
aI89
aI111
aI117
aI32
aI97
aI114
aI101
aI32
aI105
aI110
aI32
aI97
aI32
aI100
aI97
aI114
aI107
aI44
aI32
aI110
aI97
aI114
aI114
aI111
aI119
aI32
aI112
aI97
aI115
aI115
aI97
aI103
aI101
aI46
aI4
aI101
aI97
aI115
aI116
aI4
aI119
aI101
aI115
aI116
aI12
aI68
aI97
aI114
aI107
aI32
aI112
aI97
aI115
aI115
aI97
aI103
aI101
aI34
aI89
aI111
aI117
aI32
aI97
aI114
aI101
aI32
aI105
aI110
aI32
aI97
aI32
aI100
aI97
aI114
aI107
aI44
aI32
aI110
aI97
aI114
aI114
aI111
aI119
aI32
aI112
aI97
aI115
aI115
aI97
aI103
aI101
aI46
aI4
aI101
aI97
aI115
aI116
aI4
aI119
aI101
aI115
aI116
aI12
aI68
aI97
aI114
aI107
aI32
aI112
aI97
aI115
aI115
aI97
aI103
aI101
aI100
aI89
aI111
aI117
aI32
aI97
aI114
aI101
aI32
aI105
aI110
aI32
aI97
aI32
aI100
aI97
aI114
aI107
aI44
aI32
aI110
aI97
aI114
aI114
aI111
aI119
aI32
aI112
aI97
aI115
aI115
aI97
aI103
aI101
aI46
aI32
aI32
aI84
aI111
aI32
aI116
aI104
aI101
aI32
aI119
aI101
aI115
aI116
aI44
aI32
aI121
aI111
aI117
aI32
aI115
aI112
aI111
aI116
aI32
aI115
aI111
aI109
aI101
aI32
aI118
aI101
aI103
aI101
aI116
aI97
aI116
aI105
aI111
aI110
aI32
aI119
aI104
aI101
aI114
aI101
aI32
aI116
aI104
aI101
aI32
aI112
aI97
aI115
aI115
aI97
aI103
aI101
aI32
aI101
aI120
aI112
aI97
aI110
aI100
aI115
aI46
aI4
aI101
aI97
aI115
aI116
aI4
aI119
aI101
aI115
aI116
aI5
aI82
aI117
aI105
aI110
aI115
aI248
aI89
aI111
aI117
aI32
aI115
aI116
aI97
aI110
aI100
aI32
aI105
aI110
aI32
aI97
aI32
aI108
aI97
aI114
aI103
aI101
aI32
aI99
aI97
aI118
aI101
aI114
aI110
aI32
aI119
aI105
aI116
aI104
aI32
aI97
aI32
aI104
aI117
aI103
aI101
aI32
aI114
aI117
aI105
aI110
aI32
aI116
aI111
aI32
aI116
aI104
aI101
aI32
aI110
aI111
aI114
aI116
aI104
aI44
aI32
aI111
aI118
aI101
aI114
aI103
aI114
aI111
aI119
aI110
aI32
aI98
aI121
aI32
aI112
aI108
aI97
aI110
aI116
aI32
aI108
aI105
aI102
aI101
aI46
aI32
aI32
aI84
aI104
aI101
aI114
aI101
aI32
aI105
aI115
aI32
aI97
aI32
aI108
aI97
aI114
aI103
aI101
aI32
aI115
aI116
aI111
aI110
aI101
aI32
aI97
aI114
aI99
aI104
aI119
aI97
aI121
aI32
aI116
aI111
aI32
aI116
aI104
aI101
aI32
aI110
aI111
aI114
aI116
aI104
aI32
aI97
aI99
aI116
aI105
aI110
aI103
aI32
aI97
aI115
aI32
aI116
aI104
aI101
aI32
aI100
aI111
aI111
aI114
aI119
aI97
aI121
aI32
aI116
aI111
aI32
aI116
aI104
aI101
aI32
aI114
aI117
aI105
aI110
aI101
aI100
aI32
aI99
aI111
aI109
aI112
aI108
aI101
aI120
aI46
aI32
aI32
aI65
aI32
aI99
aI114
aI101
aI118
aI105
aI99
aI101
aI32
aI105
aI110
aI32
aI116
aI104
aI101
aI32
aI114
aI111
aI99
aI107
aI32
aI116
aI111
aI32
aI116
aI104
aI101
aI32
aI101
aI97
aI115
aI116
aI32
aI108
aI101
aI97
aI100
aI115
aI32
aI116
aI111
aI32
aI97
aI110
aI32
aI97
aI108
aI97
aI114
aI109
aI105
aI110
aI103
aI108
aI121
aI32
aI100
aI97
aI114
aI107
aI32
aI112
aI97
aI115
aI115
aI97
aI103
aI101
aI119
aI97
aI121
aI46
aI4
aI101
aI97
aI115
aI116
aI5
aI110
aI111
aI114
aI116
aI104
aI5
aI82
aI117
aI105
aI110
aI115
aI181
aI89
aI111
aI117
aI32
aI97
aI114
aI101
aI32
aI105
aI110
aI32
aI116
aI104
aI101
aI32
aI111
aI110
aI99
aI101
aI45
aI111
aI112
aI117
aI108
aI101
aI110
aI116
aI32
aI102
aI111
aI121
aI101
aI114
aI32
aI111
aI102
aI32
aI97
aI32
aI109
aI97
aI115
aI115
aI105
aI118
aI101
aI32
aI114
aI117
aI105
aI110
aI101
aI100
aI32
aI99
aI111
aI109
aI112
aI108
aI101
aI120
aI46
aI32
aI32
aI84
aI104
aI101
aI114
aI101
aI32
aI105
aI115
aI32
aI97
aI32
aI100
aI111
aI111
aI114
aI32
aI116
aI111
aI32
aI116
aI104
aI101
aI32
aI115
aI111
aI117
aI116
aI104
aI32
aI108
aI101
aI97
aI100
aI105
aI110
aI103
aI32
aI116
aI111
aI32
aI116
aI104
aI101
aI32
aI111
aI118
aI101
aI114
aI103
aI114
aI111
aI119
aI116
aI104
aI32
aI111
aI117
aI116
aI115
aI105
aI100
aI101
aI32
aI97
aI110
aI100
aI32
aI115
aI116
aI97
aI105
aI114
aI115
aI32
aI116
aI111
aI32
aI116
aI104
aI101
aI32
aI110
aI111
aI114
aI116
aI104
aI32
aI119
aI104
aI105
aI99
aI104
aI32
aI108
aI101
aI97
aI100
aI32
aI105
aI110
aI116
aI111
aI32
aI97
aI32
aI108
aI97
aI114
aI103
aI101
aI114
aI32
aI104
aI97
aI108
aI108
aI46
aI5
aI110
aI111
aI114
aI116
aI104
aI5
aI115
aI111
aI117
aI116
aI104
aI5
aI82
aI117
aI105
aI110
aI115
aI293
aI89
aI111
aI117
aI32
aI115
aI116
aI97
aI110
aI100
aI32
aI105
aI110
aI32
aI116
aI104
aI101
aI32
aI109
aI97
aI115
aI115
aI105
aI118
aI101
aI32
aI99
aI101
aI110
aI116
aI114
aI97
aI108
aI32
aI104
aI97
aI108
aI108
aI32
aI111
aI102
aI32
aI116
aI104
aI101
aI115
aI101
aI32
aI114
aI117
aI105
aI110
aI115
aI46
aI32
aI32
aI84
aI104
aI101
aI32
aI119
aI97
aI108
aI108
aI115
aI32
aI97
aI114
aI101
aI32
aI99
aI114
aI117
aI109
aI98
aI108
aI105
aI110
aI103
aI44
aI32
aI97
aI110
aI100
aI32
aI118
aI101
aI103
aI101
aI116
aI97
aI116
aI105
aI111
aI110
aI32
aI104
aI97
aI115
aI32
aI99
aI108
aI101
aI97
aI114
aI108
aI121
aI32
aI116
aI97
aI107
aI101
aI110
aI32
aI111
aI118
aI101
aI114
aI46
aI32
aI32
aI82
aI111
aI111
aI109
aI115
aI32
aI97
aI114
aI101
aI32
aI97
aI116
aI116
aI97
aI99
aI104
aI101
aI100
aI32
aI105
aI110
aI32
aI97
aI108
aI108
aI32
aI100
aI105
aI114
aI101
aI99
aI116
aI105
aI111
aI110
aI115
aI46
aI32
aI32
aI84
aI104
aI101
aI114
aI101
aI32
aI105
aI115
aI32
aI97
aI32
aI115
aI116
aI114
aI97
aI110
aI103
aI101
aI32
aI109
aI111
aI110
aI117
aI109
aI101
aI110
aI116
aI32
aI105
aI110
aI32
aI116
aI104
aI101
aI32
aI99
aI101
aI110
aI116
aI101
aI114
aI32
aI111
aI102
aI32
aI116
aI104
aI101
aI32
aI104
aI97
aI108
aI108
aI32
aI119
aI105
aI116
aI104
aI32
aI99
aI105
aI114
aI99
aI117
aI108
aI97
aI114
aI32
aI115
aI108
aI111
aI116
aI115
aI32
aI97
aI110
aI100
aI32
aI117
aI110
aI117
aI115
aI117
aI97
aI108
aI32
aI115
aI121
aI109
aI98
aI111
aI108
aI115
aI46
aI32
aI32
aI73
aI116
aI32
aI114
aI101
aI97
aI100
aI115
aI58
aI10
aI10
aI57
aI32
aI43
aI32
aI50
aI32
aI42
aI32
aI53
aI94
aI50
aI32
aI43
aI32
aI55
aI94
aI51
aI32
aI45
aI32
aI51
aI32
aI61
aI32
aI51
aI57
aI57
aI5
aI110
aI111
aI114
aI116
aI104
aI5
aI115
aI111
aI117
aI116
aI104
aI4
aI101
aI97
aI115
aI116
aI4
aI119
aI101
aI115
aI116
aI5
aI82
aI117
aI105
aI110
aI115
aI167
aI66
aI101
aI99
aI97
aI117
aI115
aI101
aI32
aI105
aI116
aI32
aI104
aI97
aI115
aI32
aI98
aI101
aI101
aI110
aI32
aI115
aI111
aI32
aI119
aI101
aI108
aI108
aI45
aI112
aI114
aI111
aI116
aI101
aI99
aI116
aI101
aI100
aI44
aI32
aI116
aI104
aI105
aI115
aI32
aI114
aI111
aI111
aI109
aI32
aI104
aI97
aI114
aI100
aI108
aI121
aI32
aI115
aI104
aI111
aI119
aI115
aI32
aI115
aI105
aI103
aI110
aI115
aI32
aI111
aI102
aI32
aI100
aI101
aI99
aI97
aI121
aI46
aI32
aI32
aI84
aI104
aI101
aI32
aI119
aI97
aI108
aI108
aI115
aI32
aI97
aI114
aI101
aI32
aI99
aI111
aI118
aI101
aI114
aI101
aI100
aI32
aI105
aI110
aI32
aI101
aI108
aI97
aI98
aI111
aI114
aI97
aI116
aI101
aI32
aI109
aI117
aI114
aI97
aI108
aI115
aI32
aI97
aI110
aI100
aI32
aI100
aI101
aI99
aI111
aI114
aI97
aI116
aI101
aI100
aI32
aI119
aI105
aI116
aI104
aI32
aI112
aI114
aI101
aI99
aI105
aI111
aI117
aI115
aI32
aI109
aI101
aI116
aI97
aI108
aI115
aI32
aI97
aI110
aI100
aI32
aI115
aI116
aI111
aI110
aI101
aI115
aI46
aI5
aI115
aI111
aI117
aI116
aI104
aI5
aI82
aI117
aI105
aI110
aI115
aI138
aI89
aI111
aI117
aI32
aI115
aI116
aI97
aI110
aI100
aI32
aI105
aI110
aI32
aI119
aI104
aI97
aI116
aI32
aI115
aI101
aI101
aI109
aI115
aI32
aI116
aI111
aI32
aI104
aI97
aI118
aI101
aI32
aI111
aI110
aI99
aI101
aI32
aI98
aI101
aI101
aI110
aI32
aI97
aI32
aI100
aI105
aI110
aI105
aI110
aI103
aI32
aI104
aI97
aI108
aI108
aI59
aI32
aI98
aI114
aI111
aI107
aI101
aI110
aI32
aI116
aI97
aI98
aI108
aI101
aI115
aI32
aI97
aI110
aI100
aI32
aI112
aI111
aI116
aI116
aI101
aI114
aI121
aI32
aI97
aI114
aI101
aI32
aI115
aI99
aI97
aI116
aI116
aI101
aI114
aI101
aI100
aI32
aI101
aI118
aI101
aI114
aI121
aI119
aI104
aI101
aI114
aI101
aI46
aI32
aI32
aI65
aI32
aI115
aI116
aI97
aI105
aI114
aI99
aI97
aI115
aI101
aI32
aI104
aI101
aI114
aI101
aI32
aI108
aI101
aI97
aI100
aI115
aI32
aI100
aI111
aI119
aI110
aI46
aI4
aI100
aI111
aI119
aI110
aI4
aI119
aI101
aI115
aI116
aI5
aI82
aI117
aI105
aI110
aI115
aI122
aI84
aI104
aI105
aI115
aI32
aI115
aI101
aI101
aI109
aI115
aI32
aI116
aI111
aI32
aI98
aI101
aI32
aI97
aI32
aI107
aI105
aI116
aI99
aI104
aI101
aI110
aI59
aI32
aI116
aI104
aI101
aI114
aI101
aI32
aI97
aI114
aI101
aI32
aI98
aI114
aI105
aI99
aI107
aI32
aI115
aI116
aI111
aI118
aI101
aI115
aI32
aI97
aI110
aI100
aI32
aI115
aI104
aI101
aI108
aI118
aI101
aI115
aI32
aI97
aI108
aI111
aI110
aI103
aI32
aI116
aI104
aI101
aI32
aI119
aI97
aI108
aI108
aI46
aI32
aI32
aI69
aI118
aI101
aI114
aI121
aI116
aI104
aI105
aI110
aI103
aI32
aI104
aI101
aI114
aI101
aI32
aI104
aI97
aI115
aI32
aI102
aI97
aI108
aI108
aI101
aI110
aI32
aI105
aI110
aI116
aI111
aI32
aI100
aI105
aI115
aI114
aI101
aI112
aI97
aI105
aI114
aI46
aI2
aI117
aI112
aI5
aI82
aI117
aI105
aI110
aI115
aI179
aI89
aI111
aI117
aI32
aI102
aI105
aI110
aI100
aI32
aI121
aI111
aI117
aI114
aI115
aI101
aI108
aI102
aI32
aI105
aI110
aI32
aI119
aI104
aI97
aI116
aI32
aI119
aI97
aI115
aI32
aI111
aI110
aI99
aI101
aI32
aI116
aI104
aI101
aI32
aI108
aI105
aI118
aI105
aI110
aI103
aI32
aI113
aI117
aI97
aI114
aI116
aI101
aI114
aI115
aI32
aI102
aI111
aI114
aI32
aI116
aI104
aI101
aI32
aI99
aI111
aI109
aI112
aI108
aI101
aI120
aI46
aI32
aI32
aI77
aI97
aI110
aI121
aI32
aI115
aI109
aI97
aI108
aI108
aI101
aI114
aI32
aI114
aI111
aI111
aI109
aI115
aI32
aI119
aI104
aI105
aI99
aI104
aI32
aI111
aI110
aI99
aI101
aI32
aI104
aI97
aI100
aI32
aI119
aI97
aI108
aI108
aI115
aI32
aI116
aI111
aI32
aI100
aI105
aI118
aI105
aI100
aI101
aI32
aI116
aI104
aI101
aI109
aI32
aI110
aI111
aI119
aI32
aI108
aI97
aI121
aI32
aI105
aI110
aI32
aI100
aI105
aI115
aI97
aI114
aI114
aI97
aI121
aI46
aI32
aI32
aI84
aI104
aI101
aI114
aI101
aI32
aI105
aI115
aI32
aI97
aI32
aI115
aI116
aI97
aI105
aI114
aI99
aI97
aI115
aI101
aI32
aI117
aI112
aI32
aI104
aI101
aI114
aI101
aI46
aI2
aI117
aI112
aI4
aI101
aI97
aI115
aI116
aI5
aI82
aI117
aI105
aI110
aI115
aI169
aI84
aI104
aI105
aI115
aI32
aI119
aI97
aI115
aI32
aI108
aI111
aI110
aI103
aI32
aI97
aI103
aI111
aI32
aI97
aI32
aI108
aI97
aI118
aI105
aI115
aI104
aI32
aI116
aI104
aI114
aI111
aI110
aI101
aI32
aI114
aI111
aI111
aI109
aI46
aI32
aI32
aI68
aI114
aI105
aI101
aI100
aI45
aI117
aI112
aI32
aI102
aI111
aI117
aI110
aI116
aI97
aI105
aI110
aI115
aI32
aI97
aI110
aI100
aI32
aI99
aI114
aI117
aI109
aI98
aI108
aI105
aI110
aI103
aI32
aI115
aI116
aI97
aI116
aI117
aI101
aI115
aI32
aI108
aI105
aI110
aI101
aI32
aI116
aI104
aI101
aI32
aI119
aI97
aI108
aI108
aI115
aI44
aI32
aI97
aI110
aI100
aI32
aI116
aI104
aI101
aI32
aI99
aI97
aI114
aI118
aI101
aI100
aI32
aI115
aI116
aI111
aI110
aI101
aI32
aI116
aI104
aI114
aI111
aI110
aI101
aI32
aI105
aI110
aI32
aI116
aI104
aI101
aI32
aI99
aI101
aI110
aI116
aI101
aI114
aI32
aI111
aI102
aI32
aI116
aI104
aI101
aI32
aI114
aI111
aI111
aI109
aI32
aI105
aI115
aI32
aI102
aI97
aI108
aI108
aI105
aI110
aI103
aI32
aI97
aI112
aI97
aI114
aI116
aI46
aI4
aI100
aI111
aI119
aI110
aI20
aI83
aI121
aI110
aI97
aI99
aI111
aI114
aI32
aI72
aI101
aI97
aI100
aI113
aI117
aI97
aI114
aI116
aI101
aI114
aI115
aI255
aI89
aI111
aI117
aI32
aI115
aI116
aI97
aI110
aI100
aI32
aI105
aI110
aI32
aI116
aI104
aI101
aI32
aI108
aI111
aI98
aI98
aI121
aI32
aI111
aI102
aI32
aI119
aI104
aI97
aI116
aI32
aI97
aI112
aI112
aI101
aI97
aI114
aI115
aI32
aI116
aI111
aI32
aI98
aI101
aI32
aI97
aI32
aI114
aI101
aI97
aI108
aI108
aI121
aI32
aI102
aI117
aI110
aI32
aI112
aI108
aI97
aI99
aI101
aI32
aI116
aI111
aI32
aI119
aI111
aI114
aI107
aI33
aI32
aI32
aI83
aI97
aI100
aI108
aI121
aI44
aI32
aI116
aI104
aI101
aI114
aI101
aI32
aI100
aI111
aI101
aI115
aI110
aI39
aI116
aI32
aI115
aI101
aI101
aI109
aI32
aI116
aI111
aI32
aI98
aI101
aI32
aI97
aI110
aI121
aI111
aI110
aI101
aI32
aI97
aI114
aI111
aI117
aI110
aI100
aI32
aI97
aI116
aI32
aI116
aI104
aI101
aI32
aI109
aI111
aI109
aI101
aI110
aI116
aI44
aI32
aI115
aI111
aI32
aI121
aI111
aI117
aI32
aI109
aI97
aI107
aI101
aI32
aI97
aI32
aI110
aI111
aI116
aI101
aI32
aI116
aI111
aI32
aI99
aI97
aI108
aI108
aI32
aI116
aI104
aI101
aI109
aI32
aI108
aI97
aI116
aI101
aI114
aI46
aI32
aI32
aI84
aI104
aI101
aI32
aI98
aI111
aI111
aI107
aI115
aI104
aI101
aI108
aI102
aI32
aI104
aI101
aI114
aI101
aI32
aI108
aI111
aI111
aI107
aI115
aI32
aI108
aI105
aI107
aI101
aI32
aI105
aI116
aI32
aI109
aI105
aI103
aI104
aI116
aI32
aI104
aI97
aI118
aI101
aI32
aI115
aI111
aI109
aI101
aI116
aI104
aI105
aI110
aI103
aI32
aI105
aI110
aI116
aI101
aI114
aI101
aI115
aI116
aI105
aI110
aI103
aI32
aI105
aI110
aI32
aI105
aI116
aI44
aI32
aI116
aI104
aI111
aI117
aI103
aI104
aI46
aI7
aI111
aI117
aI116
aI115
aI105
aI100
aI101
aI20
aI83
aI121
aI110
aI97
aI99
aI111
aI114
aI32
aI72
aI101
aI97
aI100
aI113
aI117
aI97
aI114
aI116
aI101
aI114
aI115
aI145
aI73
aI116
aI39
aI115
aI32
aI97
aI32
aI119
aI97
aI114
aI109
aI44
aI32
aI115
aI117
aI110
aI110
aI121
aI32
aI100
aI97
aI121
aI33
aI32
aI32
aI87
aI104
aI105
aI108
aI101
aI32
aI116
aI104
aI101
aI32
aI98
aI114
aI101
aI101
aI122
aI101
aI32
aI102
aI114
aI111
aI109
aI32
aI76
aI97
aI107
aI101
aI32
aI69
aI114
aI105
aI101
aI32
aI105
aI115
aI32
aI99
aI101
aI114
aI116
aI97
aI105
aI110
aI108
aI121
aI32
aI114
aI101
aI102
aI114
aI101
aI115
aI104
aI105
aI110
aI103
aI44
aI32
aI121
aI111
aI117
aI32
aI100
aI111
aI110
aI39
aI116
aI32
aI115
aI101
aI101
aI32
aI97
aI110
aI121
aI116
aI104
aI105
aI110
aI103
aI32
aI104
aI101
aI114
aI101
aI32
aI116
aI104
aI97
aI116
aI32
aI119
aI105
aI108
aI108
aI32
aI104
aI101
aI108
aI112
aI32
aI121
aI111
aI117
aI32
aI119
aI105
aI116
aI104
aI32
aI121
aI111
aI117
aI114
aI32
aI113
aI117
aI101
aI115
aI116
aI46
aI6
aI105
aI110
aI115
aI105
aI100
aI101
aI5
aI66
aI101
aI97
aI99
aI104
aI170
aI84
aI104
aI105
aI115
aI32
aI105
aI115
aI32
aI97
aI32
aI115
aI97
aI110
aI100
aI121
aI32
aI98
aI101
aI97
aI99
aI104
aI32
aI105
aI110
aI32
aI97
aI32
aI99
aI111
aI118
aI101
aI32
aI111
aI110
aI32
aI115
aI111
aI109
aI101
aI32
aI116
aI114
aI111
aI112
aI105
aI99
aI97
aI108
aI32
aI105
aI115
aI108
aI97
aI110
aI100
aI46
aI32
aI32
aI73
aI116
aI32
aI105
aI115
aI32
aI114
aI97
aI105
aI110
aI105
aI110
aI103
aI46
aI32
aI32
aI84
aI104
aI101
aI32
aI111
aI99
aI101
aI97
aI110
aI32
aI105
aI115
aI32
aI116
aI111
aI32
aI121
aI111
aI117
aI114
aI32
aI115
aI111
aI117
aI116
aI104
aI44
aI32
aI97
aI110
aI100
aI32
aI104
aI101
aI97
aI118
aI121
aI32
aI102
aI111
aI108
aI105
aI97
aI103
aI101
aI32
aI105
aI115
aI32
aI116
aI111
aI32
aI121
aI111
aI117
aI114
aI32
aI110
aI111
aI114
aI116
aI104
aI59
aI32
aI116
aI104
aI101
aI32
aI98
aI101
aI97
aI99
aI104
aI32
aI101
aI120
aI116
aI101
aI110
aI100
aI115
aI32
aI119
aI101
aI115
aI116
aI32
aI97
aI110
aI100
aI32
aI101
aI97
aI115
aI116
aI46
aI4
aI119
aI101
aI115
aI116
aI4
aI101
aI97
aI115
aI116
aI5
aI110
aI111
aI114
aI116
aI104
aI5
aI66
aI101
aI97
aI99
aI104
aI262
aI84
aI104
aI105
aI115
aI32
aI105
aI115
aI32
aI97
aI32
aI115
aI97
aI110
aI100
aI121
aI32
aI98
aI101
aI97
aI99
aI104
aI32
aI105
aI110
aI32
aI97
aI32
aI99
aI111
aI118
aI101
aI32
aI111
aI110
aI32
aI115
aI111
aI109
aI101
aI32
aI116
aI114
aI111
aI112
aI105
aI99
aI97
aI108
aI32
aI105
aI115
aI108
aI97
aI110
aI100
aI46
aI32
aI32
aI73
aI116
aI32
aI105
aI115
aI32
aI114
aI97
aI105
aI110
aI105
aI110
aI103
aI46
aI32
aI32
aI84
aI111
aI32
aI121
aI111
aI117
aI114
aI32
aI119
aI101
aI115
aI116
aI32
aI105
aI115
aI32
aI97
aI110
aI32
aI101
aI109
aI98
aI97
aI110
aI107
aI109
aI101
aI110
aI116
aI32
aI111
aI102
aI32
aI116
aI104
aI101
aI32
aI99
aI111
aI118
aI101
aI32
aI119
aI104
aI105
aI99
aI104
aI32
aI108
aI111
aI111
aI107
aI115
aI32
aI116
aI111
aI111
aI32
aI115
aI116
aI101
aI101
aI112
aI32
aI116
aI111
aI32
aI99
aI108
aI105
aI109
aI98
aI46
aI32
aI32
aI84
aI104
aI101
aI32
aI98
aI101
aI97
aI99
aI104
aI32
aI101
aI120
aI116
aI101
aI110
aI100
aI115
aI32
aI116
aI111
aI32
aI116
aI104
aI101
aI32
aI101
aI97
aI115
aI116
aI44
aI32
aI97
aI110
aI100
aI32
aI116
aI104
aI101
aI114
aI101
aI32
aI105
aI115
aI32
aI100
aI101
aI110
aI115
aI101
aI32
aI102
aI111
aI108
aI105
aI97
aI103
aI101
aI32
aI116
aI111
aI32
aI116
aI104
aI101
aI32
aI110
aI111
aI114
aI116
aI104
aI46
aI32
aI32
aI84
aI104
aI101
aI32
aI111
aI99
aI101
aI97
aI110
aI32
aI116
aI111
aI32
aI116
aI104
aI101
aI32
aI115
aI111
aI117
aI116
aI104
aI32
aI115
aI101
aI101
aI109
aI115
aI32
aI117
aI110
aI105
aI110
aI118
aI105
aI116
aI105
aI110
aI103
aI46
aI4
aI101
aI97
aI115
aI116
aI5
aI110
aI111
aI114
aI116
aI104
aI5
aI66
aI101
aI97
aI99
aI104
aI242
aI84
aI104
aI105
aI115
aI32
aI105
aI115
aI32
aI97
aI32
aI115
aI97
aI110
aI100
aI121
aI32
aI98
aI101
aI97
aI99
aI104
aI32
aI105
aI110
aI32
aI97
aI32
aI99
aI111
aI118
aI101
aI32
aI111
aI110
aI32
aI115
aI111
aI109
aI101
aI32
aI116
aI114
aI111
aI112
aI105
aI99
aI97
aI108
aI32
aI105
aI115
aI108
aI97
aI110
aI100
aI46
aI32
aI32
aI73
aI116
aI32
aI105
aI115
aI32
aI114
aI97
aI105
aI110
aI105
aI110
aI103
aI46
aI32
aI32
aI84
aI104
aI101
aI32
aI115
aI116
aI101
aI101
aI112
aI32
aI99
aI111
aI118
aI101
aI32
aI101
aI109
aI98
aI97
aI110
aI107
aI109
aI101
aI110
aI116
aI32
aI116
aI111
aI32
aI121
aI111
aI117
aI114
aI32
aI101
aI97
aI115
aI116
aI32
aI98
aI108
aI111
aI99
aI107
aI115
aI32
aI121
aI111
aI117
aI114
aI32
aI112
aI97
aI116
aI104
aI44
aI32
aI97
aI110
aI100
aI32
aI116
aI104
aI101
aI32
aI111
aI99
aI101
aI97
aI110
aI32
aI119
aI97
aI116
aI101
aI114
aI115
aI32
aI104
aI101
aI114
aI101
aI32
aI108
aI111
aI111
aI107
aI32
aI117
aI110
aI115
aI97
aI102
aI101
aI46
aI32
aI32
aI84
aI104
aI101
aI32
aI98
aI101
aI97
aI99
aI104
aI32
aI101
aI120
aI116
aI101
aI110
aI100
aI115
aI32
aI116
aI111
aI32
aI116
aI104
aI101
aI32
aI119
aI101
aI115
aI116
aI44
aI32
aI97
aI110
aI100
aI32
aI116
aI104
aI101
aI114
aI101
aI32
aI105
aI115
aI32
aI100
aI101
aI110
aI115
aI101
aI32
aI102
aI111
aI108
aI105
aI97
aI103
aI101
aI32
aI116
aI111
aI32
aI116
aI104
aI101
aI32
aI110
aI111
aI114
aI116
aI104
aI46
aI4
aI119
aI101
aI115
aI116
aI5
aI110
aI111
aI114
aI116
aI104
aI15
aI84
aI114
aI111
aI112
aI105
aI99
aI97
aI108
aI32
aI73
aI115
aI108
aI97
aI110
aI100
aI198
aI84
aI104
aI101
aI32
aI108
aI97
aI114
aI103
aI101
aI32
aI116
aI114
aI101
aI101
aI115
aI32
aI104
aI101
aI114
aI101
aI32
aI115
aI101
aI101
aI109
aI32
aI116
aI111
aI32
aI98
aI101
aI32
aI112
aI114
aI111
aI116
aI101
aI99
aI116
aI105
aI110
aI103
aI32
aI121
aI111
aI117
aI32
aI102
aI114
aI111
aI109
aI32
aI116
aI104
aI101
aI32
aI114
aI97
aI105
aI110
aI46
aI32
aI32
aI65
aI115
aI32
aI121
aI111
aI117
aI32
aI112
aI117
aI115
aI104
aI32
aI116
aI104
aI114
aI111
aI117
aI103
aI104
aI32
aI116
aI104
aI101
aI32
aI117
aI110
aI100
aI101
aI114
aI103
aI114
aI111
aI119
aI116
aI104
aI44
aI32
aI121
aI111
aI117
aI32
aI99
aI97
aI110
aI32
aI104
aI101
aI97
aI114
aI32
aI98
aI105
aI114
aI100
aI115
aI32
aI99
aI104
aI105
aI114
aI112
aI105
aI110
aI103
aI32
aI111
aI118
aI101
aI114
aI104
aI101
aI97
aI100
aI46
aI32
aI32
aI84
aI104
aI101
aI114
aI101
aI32
aI105
aI115
aI32
aI97
aI32
aI115
aI116
aI101
aI101
aI112
aI32
aI114
aI111
aI99
aI107
aI32
aI102
aI97
aI99
aI101
aI32
aI116
aI111
aI32
aI121
aI111
aI117
aI114
aI32
aI119
aI101
aI115
aI116
aI32
aI98
aI108
aI111
aI99
aI107
aI105
aI110
aI103
aI32
aI121
aI111
aI117
aI114
aI32
aI112
aI97
aI116
aI104
aI46
aI5
aI110
aI111
aI114
aI116
aI104
aI5
aI115
aI111
aI117
aI116
aI104
aI4
aI101
aI97
aI115
aI116
aI15
aI84
aI114
aI111
aI112
aI105
aI99
aI97
aI108
aI32
aI73
aI115
aI108
aI97
aI110
aI100
aI122
aI84
aI104
aI101
aI32
aI101
aI97
aI115
aI116
aI32
aI101
aI109
aI98
aI97
aI110
aI107
aI109
aI101
aI110
aI116
aI32
aI111
aI102
aI32
aI116
aI104
aI101
aI32
aI99
aI111
aI118
aI101
aI32
aI116
aI111
aI119
aI101
aI114
aI115
aI32
aI111
aI118
aI101
aI114
aI32
aI121
aI111
aI117
aI46
aI32
aI32
aI73
aI116
aI32
aI112
aI114
aI111
aI100
aI117
aI99
aI101
aI115
aI32
aI97
aI32
aI115
aI109
aI97
aI108
aI108
aI32
aI119
aI97
aI116
aI101
aI114
aI102
aI97
aI108
aI108
aI32
aI104
aI101
aI114
aI101
aI32
aI119
aI104
aI105
aI99
aI104
aI32
aI99
aI97
aI115
aI99
aI97
aI100
aI101
aI115
aI32
aI101
aI120
aI99
aI105
aI116
aI101
aI100
aI108
aI121
aI32
aI105
aI110
aI116
aI111
aI32
aI97
aI32
aI112
aI111
aI111
aI108
aI46
aI5
aI110
aI111
aI114
aI116
aI104
aI5
aI115
aI111
aI117
aI116
aI104
aI4
aI119
aI101
aI115
aI116
aI15
aI84
aI114
aI111
aI112
aI105
aI99
aI97
aI108
aI32
aI73
aI115
aI108
aI97
aI110
aI100
aI230
aI84
aI104
aI101
aI32
aI101
aI109
aI98
aI97
aI110
aI107
aI109
aI101
aI110
aI116
aI32
aI111
aI102
aI32
aI116
aI104
aI101
aI32
aI99
aI111
aI118
aI101
aI32
aI99
aI111
aI109
aI101
aI32
aI116
aI111
aI101
aI103
aI104
aI101
aI114
aI32
aI104
aI101
aI114
aI101
aI32
aI116
aI111
aI32
aI121
aI111
aI117
aI114
aI32
aI101
aI97
aI115
aI116
aI32
aI97
aI110
aI100
aI32
aI119
aI101
aI115
aI116
aI46
aI32
aI32
aI66
aI101
aI116
aI119
aI101
aI101
aI110
aI32
aI116
aI104
aI101
aI115
aI101
aI32
aI116
aI97
aI108
aI108
aI32
aI114
aI111
aI99
aI107
aI32
aI102
aI97
aI99
aI101
aI115
aI44
aI32
aI116
aI104
aI101
aI114
aI101
aI32
aI105
aI115
aI32
aI97
aI32
aI110
aI97
aI114
aI114
aI111
aI119
aI44
aI32
aI111
aI118
aI101
aI114
aI103
aI114
aI111
aI119
aI110
aI32
aI112
aI97
aI116
aI104
aI32
aI108
aI101
aI97
aI100
aI105
aI110
aI103
aI32
aI110
aI111
aI114
aI116
aI104
aI46
aI32
aI32
aI89
aI111
aI117
aI32
aI104
aI101
aI97
aI114
aI32
aI119
aI97
aI118
aI101
aI115
aI32
aI108
aI97
aI112
aI112
aI105
aI110
aI103
aI32
aI117
aI112
aI32
aI111
aI110
aI32
aI97
aI32
aI98
aI101
aI97
aI99
aI104
aI32
aI116
aI104
aI114
aI111
aI117
aI103
aI104
aI32
aI116
aI104
aI101
aI32
aI100
aI101
aI110
aI115
aI101
aI32
aI118
aI101
aI103
aI101
aI116
aI97
aI116
aI105
aI111
aI110
aI32
aI116
aI111
aI32
aI121
aI111
aI117
aI114
aI32
aI115
aI111
aI117
aI116
aI104
aI46
aI5
aI110
aI111
aI114
aI116
aI104
aI5
aI115
aI111
aI117
aI116
aI104
aI15
aI84
aI114
aI111
aI112
aI105
aI99
aI97
aI108
aI32
aI73
aI115
aI108
aI97
aI110
aI100
aI285
aI89
aI111
aI117
aI32
aI97
aI114
aI101
aI32
aI111
aI110
aI32
aI97
aI32
aI110
aI97
aI114
aI114
aI111
aI119
aI32
aI112
aI97
aI116
aI104
aI32
aI98
aI101
aI116
aI119
aI101
aI101
aI110
aI32
aI116
aI119
aI111
aI32
aI115
aI116
aI101
aI101
aI112
aI32
aI114
aI111
aI99
aI107
aI32
aI102
aI97
aI99
aI101
aI115
aI32
aI119
aI104
aI105
aI99
aI104
aI32
aI108
aI111
aI111
aI107
aI32
aI108
aI105
aI107
aI101
aI32
aI116
aI104
aI101
aI121
aI32
aI104
aI97
aI118
aI101
aI32
aI98
aI101
aI101
aI110
aI32
aI104
aI101
aI114
aI101
aI32
aI102
aI111
aI114
aI32
aI116
aI104
aI111
aI117
aI115
aI97
aI110
aI100
aI115
aI32
aI111
aI102
aI32
aI121
aI101
aI97
aI114
aI115
aI46
aI32
aI32
aI82
aI97
aI105
aI110
aI32
aI116
aI114
aI105
aI99
aI107
aI108
aI101
aI115
aI32
aI100
aI111
aI119
aI110
aI32
aI116
aI104
aI114
aI111
aI117
aI103
aI104
aI32
aI116
aI104
aI101
aI32
aI118
aI101
aI103
aI101
aI116
aI97
aI116
aI105
aI111
aI110
aI32
aI97
aI110
aI100
aI32
aI109
aI111
aI115
aI115
aI44
aI32
aI97
aI110
aI100
aI32
aI116
aI104
aI114
aI111
aI117
aI103
aI104
aI32
aI116
aI104
aI101
aI32
aI108
aI101
aI97
aI118
aI101
aI115
aI32
aI121
aI111
aI117
aI32
aI99
aI97
aI110
aI32
aI111
aI99
aI99
aI97
aI115
aI105
aI111
aI110
aI97
aI108
aI108
aI121
aI32
aI115
aI101
aI101
aI32
aI97
aI32
aI115
aI108
aI105
aI118
aI101
aI114
aI32
aI111
aI102
aI32
aI108
aI105
aI103
aI104
aI116
aI32
aI104
aI117
aI110
aI100
aI114
aI101
aI100
aI115
aI32
aI111
aI102
aI32
aI102
aI101
aI101
aI116
aI32
aI97
aI98
aI111
aI118
aI101
aI32
aI121
aI111
aI117
aI32
aI119
aI104
aI101
aI114
aI101
aI32
aI116
aI104
aI101
aI32
aI114
aI111
aI99
aI107
aI32
aI119
aI97
aI108
aI108
aI115
aI32
aI101
aI110
aI100
aI46
aI5
aI110
aI111
aI114
aI116
aI104
aI5
aI115
aI111
aI117
aI116
aI104
aI15
aI84
aI114
aI111
aI112
aI105
aI99
aI97
aI108
aI32
aI73
aI115
aI108
aI97
aI110
aI100
aI245
aI84
aI104
aI101
aI32
aI110
aI97
aI114
aI114
aI111
aI119
aI32
aI112
aI97
aI116
aI104
aI32
aI115
aI108
aI111
aI112
aI101
aI115
aI32
aI100
aI111
aI119
aI110
aI119
aI97
aI114
aI100
aI32
aI116
aI111
aI32
aI116
aI104
aI101
aI32
aI110
aI111
aI114
aI116
aI104
aI32
aI97
aI110
aI100
aI32
aI108
aI101
aI97
aI100
aI115
aI32
aI116
aI111
aI32
aI116
aI104
aI101
aI32
aI109
aI111
aI117
aI116
aI104
aI32
aI111
aI102
aI32
aI97
aI32
aI115
aI109
aI97
aI108
aI108
aI32
aI99
aI97
aI118
aI101
aI46
aI32
aI32
aI65
aI32
aI115
aI105
aI103
aI110
aI32
aI110
aI101
aI97
aI114
aI98
aI121
aI32
aI114
aI101
aI97
aI100
aI115
aI32
aI34
aI84
aI114
aI101
aI97
aI115
aI117
aI114
aI101
aI32
aI86
aI97
aI117
aI108
aI116
aI32
aI65
aI99
aI99
aI101
aI115
aI115
aI34
aI44
aI32
aI98
aI117
aI116
aI32
aI100
aI105
aI102
aI102
aI101
aI114
aI101
aI110
aI116
aI32
aI104
aI97
aI110
aI100
aI119
aI114
aI105
aI116
aI105
aI110
aI103
aI32
aI104
aI97
aI115
aI32
aI99
aI114
aI111
aI115
aI115
aI101
aI100
aI32
aI116
aI104
aI105
aI115
aI32
aI111
aI117
aI116
aI32
aI97
aI110
aI100
aI32
aI119
aI114
aI105
aI116
aI116
aI101
aI110
aI32
aI34
aI76
aI97
aI105
aI114
aI32
aI111
aI102
aI32
aI72
aI111
aI114
aI114
aI105
aI98
aI108
aI101
aI32
aI77
aI111
aI110
aI115
aI116
aI101
aI114
aI33
aI32
aI32
aI65
aI108
aI108
aI32
aI110
aI111
aI110
aI45
aI112
aI105
aI114
aI97
aI116
aI101
aI115
aI32
aI107
aI101
aI101
aI112
aI32
aI111
aI117
aI116
aI33
aI34
aI46
aI5
aI110
aI111
aI114
aI116
aI104
aI5
aI115
aI111
aI117
aI116
aI104
aI13
aI84
aI114
aI111
aI112
aI105
aI99
aI97
aI108
aI32
aI67
aI97
aI118
aI101
aI220
aI89
aI111
aI117
aI32
aI115
aI116
aI97
aI110
aI100
aI32
aI97
aI116
aI32
aI116
aI104
aI101
aI32
aI101
aI110
aI116
aI114
aI97
aI110
aI99
aI101
aI32
aI116
aI111
aI32
aI97
aI32
aI110
aI97
aI116
aI117
aI114
aI97
aI108
aI32
aI99
aI97
aI118
aI101
aI32
aI119
aI104
aI105
aI99
aI104
aI32
aI108
aI111
aI111
aI107
aI115
aI32
aI108
aI105
aI107
aI101
aI32
aI105
aI116
aI32
aI104
aI97
aI115
aI110
aI39
aI116
aI32
aI98
aI101
aI101
aI110
aI32
aI118
aI105
aI115
aI105
aI116
aI101
aI100
aI32
aI105
aI110
aI32
aI113
aI117
aI105
aI116
aI101
aI32
aI115
aI111
aI109
aI101
aI32
aI116
aI105
aI109
aI101
aI46
aI32
aI32
aI76
aI105
aI103
aI104
aI116
aI32
aI112
aI111
aI117
aI114
aI115
aI32
aI105
aI110
aI32
aI116
aI104
aI114
aI111
aI117
aI103
aI104
aI32
aI116
aI104
aI101
aI32
aI111
aI112
aI101
aI110
aI105
aI110
aI103
aI32
aI116
aI111
aI32
aI116
aI104
aI101
aI32
aI115
aI111
aI117
aI116
aI104
aI44
aI32
aI119
aI104
aI105
aI108
aI101
aI32
aI102
aI105
aI114
aI101
aI102
aI108
aI105
aI101
aI115
aI32
aI108
aI105
aI103
aI104
aI116
aI32
aI116
aI104
aI101
aI32
aI112
aI97
aI116
aI104
aI32
aI102
aI117
aI114
aI116
aI104
aI101
aI114
aI32
aI105
aI110
aI116
aI111
aI32
aI116
aI104
aI101
aI32
aI99
aI97
aI118
aI101
aI32
aI116
aI111
aI32
aI116
aI104
aI101
aI32
aI110
aI111
aI114
aI116
aI104
aI46
aI5
aI110
aI111
aI114
aI116
aI104
aI5
aI115
aI111
aI117
aI116
aI104
aI13
aI84
aI114
aI111
aI112
aI105
aI99
aI97
aI108
aI32
aI67
aI97
aI118
aI101
aI122
aI70
aI105
aI114
aI101
aI102
aI108
aI105
aI101
aI115
aI32
aI115
aI108
aI111
aI119
aI108
aI121
aI32
aI100
aI114
aI105
aI102
aI116
aI32
aI97
aI114
aI111
aI117
aI110
aI100
aI32
aI121
aI111
aI117
aI32
aI97
aI110
aI100
aI32
aI108
aI105
aI103
aI104
aI116
aI32
aI116
aI104
aI101
aI32
aI116
aI117
aI110
aI110
aI101
aI108
aI44
aI32
aI119
aI104
aI105
aI99
aI104
aI32
aI115
aI101
aI101
aI109
aI115
aI32
aI116
aI111
aI32
aI103
aI101
aI116
aI32
aI98
aI114
aI105
aI103
aI104
aI116
aI101
aI114
aI32
aI116
aI111
aI32
aI116
aI104
aI101
aI32
aI115
aI111
aI117
aI116
aI104
aI44
aI32
aI98
aI117
aI116
aI32
aI100
aI105
aI109
aI109
aI101
aI114
aI32
aI116
aI111
aI32
aI116
aI104
aI101
aI32
aI110
aI111
aI114
aI116
aI104
aI46
aI5
aI110
aI111
aI114
aI116
aI104
aI5
aI115
aI111
aI117
aI116
aI104
aI13
aI84
aI114
aI111
aI112
aI105
aI99
aI97
aI108
aI32
aI67
aI97
aI118
aI101
aI322
aI84
aI104
aI101
aI32
aI99
aI97
aI118
aI101
aI32
aI105
aI115
aI32
aI97
aI32
aI108
aI105
aI116
aI116
aI108
aI101
aI32
aI119
aI105
aI100
aI101
aI114
aI32
aI104
aI101
aI114
aI101
aI46
aI32
aI32
aI89
aI111
aI117
aI32
aI102
aI105
aI110
aI100
aI32
aI116
aI104
aI101
aI32
aI99
aI111
aI98
aI119
aI101
aI98
aI45
aI101
aI110
aI99
aI114
aI117
aI115
aI116
aI101
aI100
aI32
aI114
aI101
aI109
aI97
aI105
aI110
aI115
aI32
aI111
aI102
aI32
aI97
aI32
aI115
aI109
aI97
aI108
aI108
aI32
aI99
aI97
aI109
aI112
aI44
aI32
aI97
aI110
aI100
aI32
aI97
aI108
aI116
aI104
aI111
aI117
aI103
aI104
aI32
aI121
aI111
aI117
aI32
aI100
aI111
aI110
aI39
aI116
aI32
aI115
aI117
aI115
aI112
aI101
aI99
aI116
aI32
aI116
aI104
aI101
aI32
aI98
aI114
aI111
aI107
aI101
aI110
aI32
aI112
aI105
aI101
aI99
aI101
aI115
aI32
aI111
aI102
aI32
aI116
aI97
aI98
aI108
aI101
aI115
aI32
aI97
aI110
aI100
aI32
aI99
aI104
aI97
aI105
aI114
aI115
aI32
aI119
aI105
aI108
aI108
aI32
aI112
aI114
aI111
aI118
aI101
aI32
aI117
aI115
aI101
aI102
aI117
aI108
aI32
aI116
aI111
aI32
aI121
aI111
aI117
aI114
aI32
aI113
aI117
aI101
aI115
aI116
aI44
aI32
aI116
aI104
aI101
aI32
aI102
aI105
aI114
aI101
aI102
aI108
aI105
aI101
aI115
aI32
aI115
aI101
aI101
aI109
aI32
aI116
aI111
aI32
aI108
aI105
aI107
aI101
aI32
aI117
aI115
aI105
aI110
aI103
aI32
aI116
aI104
aI101
aI32
aI100
aI101
aI98
aI114
aI105
aI115
aI32
aI97
aI115
aI32
aI97
aI32
aI115
aI104
aI101
aI108
aI116
aI101
aI114
aI46
aI32
aI32
aI65
aI32
aI112
aI97
aI115
aI115
aI97
aI103
aI101
aI119
aI97
aI121
aI32
aI108
aI101
aI97
aI100
aI115
aI32
aI110
aI111
aI114
aI116
aI104
aI32
aI97
aI110
aI100
aI32
aI115
aI111
aI117
aI116
aI104
aI44
aI32
aI97
aI110
aI100
aI32
aI116
aI104
aI101
aI114
aI101
aI32
aI105
aI115
aI32
aI97
aI110
aI32
aI97
aI108
aI99
aI111
aI118
aI101
aI32
aI116
aI111
aI32
aI116
aI104
aI101
aI32
aI101
aI97
aI115
aI116
aI46
aI5
aI110
aI111
aI114
aI116
aI104
aI5
aI115
aI111
aI117
aI116
aI104
aI4
aI101
aI97
aI115
aI116
aI20
aI84
aI114
aI111
aI112
aI105
aI99
aI97
aI108
aI32
aI67
aI97
aI118
aI101
aI32
aI65
aI108
aI99
aI111
aI118
aI101
aI163
aI65
aI116
aI32
aI116
aI104
aI101
aI32
aI98
aI97
aI99
aI107
aI32
aI111
aI102
aI32
aI116
aI104
aI105
aI115
aI32
aI97
aI108
aI99
aI111
aI118
aI101
aI44
aI32
aI116
aI104
aI101
aI114
aI101
aI32
aI105
aI115
aI32
aI97
aI32
aI115
aI109
aI97
aI108
aI108
aI32
aI116
aI97
aI98
aI108
aI101
aI44
aI32
aI97
aI32
aI99
aI104
aI97
aI105
aI114
aI44
aI32
aI97
aI110
aI100
aI32
aI97
aI32
aI98
aI114
aI111
aI107
aI101
aI110
aI32
aI108
aI97
aI110
aI116
aI101
aI114
aI110
aI46
aI32
aI32
aI73
aI116
aI32
aI108
aI111
aI111
aI107
aI115
aI32
aI108
aI105
aI107
aI101
aI32
aI116
aI104
aI105
aI115
aI32
aI115
aI112
aI97
aI99
aI101
aI32
aI119
aI97
aI115
aI32
aI117
aI115
aI101
aI100
aI32
aI109
aI117
aI99
aI104
aI32
aI109
aI111
aI114
aI101
aI32
aI114
aI101
aI99
aI101
aI110
aI116
aI108
aI121
aI32
aI116
aI104
aI97
aI110
aI32
aI116
aI104
aI101
aI32
aI99
aI97
aI109
aI112
aI32
aI116
aI111
aI32
aI116
aI104
aI101
aI32
aI119
aI101
aI115
aI116
aI46
aI4
aI119
aI101
aI115
aI116
aI13
aI84
aI114
aI111
aI112
aI105
aI99
aI97
aI108
aI32
aI67
aI97
aI118
aI101
aI104
aI84
aI104
aI105
aI115
aI32
aI116
aI117
aI110
aI110
aI101
aI108
aI32
aI115
aI108
aI111
aI112
aI101
aI115
aI32
aI100
aI101
aI101
aI112
aI101
aI114
aI32
aI117
aI110
aI100
aI101
aI114
aI103
aI114
aI111
aI117
aI110
aI100
aI32
aI116
aI111
aI32
aI116
aI104
aI101
aI32
aI110
aI111
aI114
aI116
aI104
aI44
aI32
aI98
aI117
aI116
aI32
aI116
aI104
aI101
aI32
aI102
aI105
aI114
aI101
aI102
aI108
aI105
aI101
aI115
aI32
aI97
aI114
aI101
aI32
aI97
aI108
aI108
aI32
aI97
aI114
aI111
aI117
aI110
aI100
aI32
aI116
aI111
aI32
aI108
aI105
aI103
aI104
aI116
aI32
aI121
aI111
aI117
aI114
aI32
aI112
aI97
aI116
aI104
aI46
aI5
aI110
aI111
aI114
aI116
aI104
aI5
aI115
aI111
aI117
aI116
aI104
aI10
aI86
aI97
aI117
aI108
aI116
aI32
aI76
aI111
aI99
aI107
aI128
aI89
aI111
aI117
aI32
aI97
aI114
aI101
aI32
aI105
aI110
aI32
aI97
aI32
aI103
aI114
aI105
aI100
aI32
aI111
aI102
aI32
aI114
aI111
aI111
aI109
aI115
aI32
aI116
aI104
aI97
aI116
aI32
aI99
aI111
aI110
aI116
aI114
aI111
aI108
aI32
aI116
aI104
aI101
aI32
aI100
aI111
aI111
aI114
aI32
aI116
aI111
aI32
aI116
aI104
aI101
aI32
aI118
aI97
aI117
aI108
aI116
aI46
aI10
aI10
aI84
aI104
aI101
aI32
aI102
aI108
aI111
aI111
aI114
aI32
aI111
aI102
aI32
aI116
aI104
aI105
aI115
aI32
aI114
aI111
aI111
aI109
aI32
aI105
aI115
aI32
aI97
aI32
aI108
aI97
aI114
aI103
aI101
aI32
aI109
aI111
aI115
aI97
aI105
aI99
aI32
aI100
aI101
aI112
aI105
aI99
aI116
aI105
aI110
aI103
aI32
aI97
aI32
aI39
aI42
aI39
aI32
aI115
aI121
aI109
aI98
aI111
aI108
aI46
aI4
aI101
aI97
aI115
aI116
aI5
aI115
aI111
aI117
aI116
aI104
aI10
aI86
aI97
aI117
aI108
aI116
aI32
aI76
aI111
aI99
aI107
aI130
aI89
aI111
aI117
aI32
aI97
aI114
aI101
aI32
aI105
aI110
aI32
aI97
aI32
aI103
aI114
aI105
aI100
aI32
aI111
aI102
aI32
aI114
aI111
aI111
aI109
aI115
aI32
aI116
aI104
aI97
aI116
aI32
aI99
aI111
aI110
aI116
aI114
aI111
aI108
aI32
aI116
aI104
aI101
aI32
aI100
aI111
aI111
aI114
aI32
aI116
aI111
aI32
aI116
aI104
aI101
aI32
aI118
aI97
aI117
aI108
aI116
aI46
aI10
aI10
aI84
aI104
aI101
aI32
aI102
aI108
aI111
aI111
aI114
aI32
aI111
aI102
aI32
aI116
aI104
aI105
aI115
aI32
aI114
aI111
aI111
aI109
aI32
aI105
aI115
aI32
aI97
aI32
aI108
aI97
aI114
aI103
aI101
aI32
aI109
aI111
aI115
aI97
aI105
aI99
aI32
aI100
aI101
aI112
aI105
aI99
aI116
aI105
aI110
aI103
aI32
aI116
aI104
aI101
aI32
aI110
aI117
aI109
aI98
aI101
aI114
aI32
aI39
aI56
aI39
aI46
aI4
aI101
aI97
aI115
aI116
aI5
aI115
aI111
aI117
aI116
aI104
aI4
aI119
aI101
aI115
aI116
aI10
aI86
aI97
aI117
aI108
aI116
aI32
aI76
aI111
aI99
aI107
aI128
aI89
aI111
aI117
aI32
aI97
aI114
aI101
aI32
aI105
aI110
aI32
aI97
aI32
aI103
aI114
aI105
aI100
aI32
aI111
aI102
aI32
aI114
aI111
aI111
aI109
aI115
aI32
aI116
aI104
aI97
aI116
aI32
aI99
aI111
aI110
aI116
aI114
aI111
aI108
aI32
aI116
aI104
aI101
aI32
aI100
aI111
aI111
aI114
aI32
aI116
aI111
aI32
aI116
aI104
aI101
aI32
aI118
aI97
aI117
aI108
aI116
aI46
aI10
aI10
aI84
aI104
aI101
aI32
aI102
aI108
aI111
aI111
aI114
aI32
aI111
aI102
aI32
aI116
aI104
aI105
aI115
aI32
aI114
aI111
aI111
aI109
aI32
aI105
aI115
aI32
aI97
aI32
aI108
aI97
aI114
aI103
aI101
aI32
aI109
aI111
aI115
aI97
aI105
aI99
aI32
aI100
aI101
aI112
aI105
aI99
aI116
aI105
aI110
aI103
aI32
aI97
aI32
aI39
aI45
aI39
aI32
aI115
aI121
aI109
aI98
aI111
aI108
aI46
aI4
aI101
aI97
aI115
aI116
aI5
aI115
aI111
aI117
aI116
aI104
aI4
aI119
aI101
aI115
aI116
aI10
aI86
aI97
aI117
aI108
aI116
aI32
aI68
aI111
aI111
aI114
aI246
aI89
aI111
aI117
aI32
aI115
aI116
aI97
aI110
aI100
aI32
aI98
aI101
aI102
aI111
aI114
aI101
aI32
aI116
aI104
aI101
aI32
aI100
aI111
aI111
aI114
aI32
aI116
aI111
aI32
aI116
aI104
aI101
aI32
aI118
aI97
aI117
aI108
aI116
aI59
aI32
aI105
aI116
aI32
aI104
aI97
aI115
aI32
aI97
aI32
aI108
aI97
aI114
aI103
aI101
aI32
aI39
aI51
aI48
aI39
aI32
aI99
aI97
aI114
aI118
aI101
aI100
aI32
aI105
aI110
aI116
aI111
aI32
aI105
aI116
aI46
aI32
aI32
aI65
aI102
aI102
aI105
aI120
aI101
aI100
aI32
aI116
aI111
aI32
aI116
aI104
aI101
aI32
aI119
aI97
aI108
aI108
aI32
aI110
aI101
aI97
aI114
aI32
aI116
aI104
aI101
aI32
aI100
aI111
aI111
aI114
aI44
aI32
aI116
aI104
aI101
aI114
aI101
aI32
aI105
aI115
aI32
aI97
aI32
aI114
aI117
aI110
aI110
aI105
aI110
aI103
aI32
aI104
aI111
aI117
aI114
aI103
aI108
aI97
aI115
aI115
aI32
aI119
aI104
aI105
aI99
aI104
aI32
aI110
aI101
aI118
aI101
aI114
aI32
aI115
aI101
aI101
aI109
aI115
aI32
aI116
aI111
aI32
aI114
aI117
aI110
aI32
aI111
aI117
aI116
aI32
aI111
aI102
aI32
aI115
aI97
aI110
aI100
aI46
aI10
aI10
aI84
aI104
aI101
aI32
aI102
aI108
aI111
aI111
aI114
aI32
aI111
aI102
aI32
aI116
aI104
aI105
aI115
aI32
aI114
aI111
aI111
aI109
aI32
aI105
aI115
aI32
aI97
aI32
aI108
aI97
aI114
aI103
aI101
aI32
aI109
aI111
aI115
aI97
aI105
aI99
aI32
aI100
aI101
aI112
aI105
aI99
aI116
aI105
aI110
aI103
aI32
aI116
aI104
aI101
aI32
aI110
aI117
aI109
aI98
aI101
aI114
aI32
aI39
aI49
aI39
aI46
aI5
aI115
aI111
aI117
aI116
aI104
aI4
aI119
aI101
aI115
aI116
aI5
aI118
aI97
aI117
aI108
aI116
aI10
aI86
aI97
aI117
aI108
aI116
aI32
aI76
aI111
aI99
aI107
aI130
aI89
aI111
aI117
aI32
aI97
aI114
aI101
aI32
aI105
aI110
aI32
aI97
aI32
aI103
aI114
aI105
aI100
aI32
aI111
aI102
aI32
aI114
aI111
aI111
aI109
aI115
aI32
aI116
aI104
aI97
aI116
aI32
aI99
aI111
aI110
aI116
aI114
aI111
aI108
aI32
aI116
aI104
aI101
aI32
aI100
aI111
aI111
aI114
aI32
aI116
aI111
aI32
aI116
aI104
aI101
aI32
aI118
aI97
aI117
aI108
aI116
aI46
aI10
aI10
aI84
aI104
aI101
aI32
aI102
aI108
aI111
aI111
aI114
aI32
aI111
aI102
aI32
aI116
aI104
aI105
aI115
aI32
aI114
aI111
aI111
aI109
aI32
aI105
aI115
aI32
aI97
aI32
aI108
aI97
aI114
aI103
aI101
aI32
aI109
aI111
aI115
aI97
aI105
aI99
aI32
aI100
aI101
aI112
aI105
aI99
aI116
aI105
aI110
aI103
aI32
aI116
aI104
aI101
aI32
aI110
aI117
aI109
aI98
aI101
aI114
aI32
aI39
aI52
aI39
aI46
aI5
aI110
aI111
aI114
aI116
aI104
aI4
aI101
aI97
aI115
aI116
aI5
aI115
aI111
aI117
aI116
aI104
aI10
aI86
aI97
aI117
aI108
aI116
aI32
aI76
aI111
aI99
aI107
aI128
aI89
aI111
aI117
aI32
aI97
aI114
aI101
aI32
aI105
aI110
aI32
aI97
aI32
aI103
aI114
aI105
aI100
aI32
aI111
aI102
aI32
aI114
aI111
aI111
aI109
aI115
aI32
aI116
aI104
aI97
aI116
aI32
aI99
aI111
aI110
aI116
aI114
aI111
aI108
aI32
aI116
aI104
aI101
aI32
aI100
aI111
aI111
aI114
aI32
aI116
aI111
aI32
aI116
aI104
aI101
aI32
aI118
aI97
aI117
aI108
aI116
aI46
aI10
aI10
aI84
aI104
aI101
aI32
aI102
aI108
aI111
aI111
aI114
aI32
aI111
aI102
aI32
aI116
aI104
aI105
aI115
aI32
aI114
aI111
aI111
aI109
aI32
aI105
aI115
aI32
aI97
aI32
aI108
aI97
aI114
aI103
aI101
aI32
aI109
aI111
aI115
aI97
aI105
aI99
aI32
aI100
aI101
aI112
aI105
aI99
aI116
aI105
aI110
aI103
aI32
aI97
aI32
aI39
aI42
aI39
aI32
aI115
aI121
aI109
aI98
aI111
aI108
aI46
aI5
aI110
aI111
aI114
aI116
aI104
aI4
aI101
aI97
aI115
aI116
aI5
aI115
aI111
aI117
aI116
aI104
aI4
aI119
aI101
aI115
aI116
aI10
aI86
aI97
aI117
aI108
aI116
aI32
aI76
aI111
aI99
aI107
aI131
aI89
aI111
aI117
aI32
aI97
aI114
aI101
aI32
aI105
aI110
aI32
aI97
aI32
aI103
aI114
aI105
aI100
aI32
aI111
aI102
aI32
aI114
aI111
aI111
aI109
aI115
aI32
aI116
aI104
aI97
aI116
aI32
aI99
aI111
aI110
aI116
aI114
aI111
aI108
aI32
aI116
aI104
aI101
aI32
aI100
aI111
aI111
aI114
aI32
aI116
aI111
aI32
aI116
aI104
aI101
aI32
aI118
aI97
aI117
aI108
aI116
aI46
aI10
aI10
aI84
aI104
aI101
aI32
aI102
aI108
aI111
aI111
aI114
aI32
aI111
aI102
aI32
aI116
aI104
aI105
aI115
aI32
aI114
aI111
aI111
aI109
aI32
aI105
aI115
aI32
aI97
aI32
aI108
aI97
aI114
aI103
aI101
aI32
aI109
aI111
aI115
aI97
aI105
aI99
aI32
aI100
aI101
aI112
aI105
aI99
aI116
aI105
aI110
aI103
aI32
aI116
aI104
aI101
aI32
aI110
aI117
aI109
aI98
aI101
aI114
aI32
aI39
aI49
aI49
aI39
aI46
aI5
aI110
aI111
aI114
aI116
aI104
aI4
aI101
aI97
aI115
aI116
aI5
aI115
aI111
aI117
aI116
aI104
aI4
aI119
aI101
aI115
aI116
aI10
aI86
aI97
aI117
aI108
aI116
aI32
aI76
aI111
aI99
aI107
aI128
aI89
aI111
aI117
aI32
aI97
aI114
aI101
aI32
aI105
aI110
aI32
aI97
aI32
aI103
aI114
aI105
aI100
aI32
aI111
aI102
aI32
aI114
aI111
aI111
aI109
aI115
aI32
aI116
aI104
aI97
aI116
aI32
aI99
aI111
aI110
aI116
aI114
aI111
aI108
aI32
aI116
aI104
aI101
aI32
aI100
aI111
aI111
aI114
aI32
aI116
aI111
aI32
aI116
aI104
aI101
aI32
aI118
aI97
aI117
aI108
aI116
aI46
aI10
aI10
aI84
aI104
aI101
aI32
aI102
aI108
aI111
aI111
aI114
aI32
aI111
aI102
aI32
aI116
aI104
aI105
aI115
aI32
aI114
aI111
aI111
aI109
aI32
aI105
aI115
aI32
aI97
aI32
aI108
aI97
aI114
aI103
aI101
aI32
aI109
aI111
aI115
aI97
aI105
aI99
aI32
aI100
aI101
aI112
aI105
aI99
aI116
aI105
aI110
aI103
aI32
aI97
aI32
aI39
aI42
aI39
aI32
aI115
aI121
aI109
aI98
aI111
aI108
aI46
aI5
aI110
aI111
aI114
aI116
aI104
aI5
aI115
aI111
aI117
aI116
aI104
aI4
aI119
aI101
aI115
aI116
aI10
aI86
aI97
aI117
aI108
aI116
aI32
aI76
aI111
aI99
aI107
aI128
aI89
aI111
aI117
aI32
aI97
aI114
aI101
aI32
aI105
aI110
aI32
aI97
aI32
aI103
aI114
aI105
aI100
aI32
aI111
aI102
aI32
aI114
aI111
aI111
aI109
aI115
aI32
aI116
aI104
aI97
aI116
aI32
aI99
aI111
aI110
aI116
aI114
aI111
aI108
aI32
aI116
aI104
aI101
aI32
aI100
aI111
aI111
aI114
aI32
aI116
aI111
aI32
aI116
aI104
aI101
aI32
aI118
aI97
aI117
aI108
aI116
aI46
aI10
aI10
aI84
aI104
aI101
aI32
aI102
aI108
aI111
aI111
aI114
aI32
aI111
aI102
aI32
aI116
aI104
aI105
aI115
aI32
aI114
aI111
aI111
aI109
aI32
aI105
aI115
aI32
aI97
aI32
aI108
aI97
aI114
aI103
aI101
aI32
aI109
aI111
aI115
aI97
aI105
aI99
aI32
aI100
aI101
aI112
aI105
aI99
aI116
aI105
aI110
aI103
aI32
aI97
aI32
aI39
aI43
aI39
aI32
aI115
aI121
aI109
aI98
aI111
aI108
aI46
aI5
aI110
aI111
aI114
aI116
aI104
aI4
aI101
aI97
aI115
aI116
aI5
aI115
aI111
aI117
aI116
aI104
aI10
aI86
aI97
aI117
aI108
aI116
aI32
aI76
aI111
aI99
aI107
aI130
aI89
aI111
aI117
aI32
aI97
aI114
aI101
aI32
aI105
aI110
aI32
aI97
aI32
aI103
aI114
aI105
aI100
aI32
aI111
aI102
aI32
aI114
aI111
aI111
aI109
aI115
aI32
aI116
aI104
aI97
aI116
aI32
aI99
aI111
aI110
aI116
aI114
aI111
aI108
aI32
aI116
aI104
aI101
aI32
aI100
aI111
aI111
aI114
aI32
aI116
aI111
aI32
aI116
aI104
aI101
aI32
aI118
aI97
aI117
aI108
aI116
aI46
aI10
aI10
aI84
aI104
aI101
aI32
aI102
aI108
aI111
aI111
aI114
aI32
aI111
aI102
aI32
aI116
aI104
aI105
aI115
aI32
aI114
aI111
aI111
aI109
aI32
aI105
aI115
aI32
aI97
aI32
aI108
aI97
aI114
aI103
aI101
aI32
aI109
aI111
aI115
aI97
aI105
aI99
aI32
aI100
aI101
aI112
aI105
aI99
aI116
aI105
aI110
aI103
aI32
aI116
aI104
aI101
aI32
aI110
aI117
aI109
aI98
aI101
aI114
aI32
aI39
aI52
aI39
aI46
aI5
aI110
aI111
aI114
aI116
aI104
aI4
aI101
aI97
aI115
aI116
aI5
aI115
aI111
aI117
aI116
aI104
aI4
aI119
aI101
aI115
aI116
aI10
aI86
aI97
aI117
aI108
aI116
aI32
aI76
aI111
aI99
aI107
aI128
aI89
aI111
aI117
aI32
aI97
aI114
aI101
aI32
aI105
aI110
aI32
aI97
aI32
aI103
aI114
aI105
aI100
aI32
aI111
aI102
aI32
aI114
aI111
aI111
aI109
aI115
aI32
aI116
aI104
aI97
aI116
aI32
aI99
aI111
aI110
aI116
aI114
aI111
aI108
aI32
aI116
aI104
aI101
aI32
aI100
aI111
aI111
aI114
aI32
aI116
aI111
aI32
aI116
aI104
aI101
aI32
aI118
aI97
aI117
aI108
aI116
aI46
aI10
aI10
aI84
aI104
aI101
aI32
aI102
aI108
aI111
aI111
aI114
aI32
aI111
aI102
aI32
aI116
aI104
aI105
aI115
aI32
aI114
aI111
aI111
aI109
aI32
aI105
aI115
aI32
aI97
aI32
aI108
aI97
aI114
aI103
aI101
aI32
aI109
aI111
aI115
aI97
aI105
aI99
aI32
aI100
aI101
aI112
aI105
aI99
aI116
aI105
aI110
aI103
aI32
aI97
aI32
aI39
aI45
aI39
aI32
aI115
aI121
aI109
aI98
aI111
aI108
aI46
aI5
aI110
aI111
aI114
aI116
aI104
aI4
aI101
aI97
aI115
aI116
aI5
aI115
aI111
aI117
aI116
aI104
aI4
aI119
aI101
aI115
aI116
aI10
aI86
aI97
aI117
aI108
aI116
aI32
aI76
aI111
aI99
aI107
aI131
aI89
aI111
aI117
aI32
aI97
aI114
aI101
aI32
aI105
aI110
aI32
aI97
aI32
aI103
aI114
aI105
aI100
aI32
aI111
aI102
aI32
aI114
aI111
aI111
aI109
aI115
aI32
aI116
aI104
aI97
aI116
aI32
aI99
aI111
aI110
aI116
aI114
aI111
aI108
aI32
aI116
aI104
aI101
aI32
aI100
aI111
aI111
aI114
aI32
aI116
aI111
aI32
aI116
aI104
aI101
aI32
aI118
aI97
aI117
aI108
aI116
aI46
aI10
aI10
aI84
aI104
aI101
aI32
aI102
aI108
aI111
aI111
aI114
aI32
aI111
aI102
aI32
aI116
aI104
aI105
aI115
aI32
aI114
aI111
aI111
aI109
aI32
aI105
aI115
aI32
aI97
aI32
aI108
aI97
aI114
aI103
aI101
aI32
aI109
aI111
aI115
aI97
aI105
aI99
aI32
aI100
aI101
aI112
aI105
aI99
aI116
aI105
aI110
aI103
aI32
aI116
aI104
aI101
aI32
aI110
aI117
aI109
aI98
aI101
aI114
aI32
aI39
aI49
aI56
aI39
aI46
aI5
aI110
aI111
aI114
aI116
aI104
aI5
aI115
aI111
aI117
aI116
aI104
aI4
aI119
aI101
aI115
aI116
aI17
aI86
aI97
aI117
aI108
aI116
aI32
aI65
aI110
aI116
aI101
aI99
aI104
aI97
aI109
aI98
aI101
aI114
aI144
aI89
aI111
aI117
aI32
aI97
aI114
aI101
aI32
aI105
aI110
aI32
aI116
aI104
aI101
aI32
aI97
aI110
aI116
aI101
aI99
aI104
aI97
aI109
aI98
aI101
aI114
aI32
aI116
aI111
aI32
aI97
aI32
aI103
aI114
aI105
aI100
aI32
aI111
aI102
aI32
aI114
aI111
aI111
aI109
aI115
aI32
aI116
aI104
aI97
aI116
aI32
aI99
aI111
aI110
aI116
aI114
aI111
aI108
aI32
aI116
aI104
aI101
aI32
aI100
aI111
aI111
aI114
aI32
aI116
aI111
aI32
aI116
aI104
aI101
aI32
aI118
aI97
aI117
aI108
aI116
aI46
aI32
aI32
aI89
aI111
aI117
aI32
aI110
aI111
aI116
aI105
aI99
aI101
aI32
aI116
aI104
aI101
aI32
aI110
aI117
aI109
aI98
aI101
aI114
aI32
aI39
aI50
aI50
aI39
aI32
aI105
aI115
aI32
aI99
aI97
aI114
aI118
aI101
aI100
aI32
aI105
aI110
aI116
aI111
aI32
aI116
aI104
aI101
aI32
aI111
aI114
aI98
aI39
aI115
aI32
aI112
aI101
aI100
aI101
aI115
aI116
aI97
aI108
aI46
aI5
aI110
aI111
aI114
aI116
aI104
aI4
aI101
aI97
aI115
aI116
aI5
aI115
aI111
aI117
aI116
aI104
aI10
aI86
aI97
aI117
aI108
aI116
aI32
aI76
aI111
aI99
aI107
aI128
aI89
aI111
aI117
aI32
aI97
aI114
aI101
aI32
aI105
aI110
aI32
aI97
aI32
aI103
aI114
aI105
aI100
aI32
aI111
aI102
aI32
aI114
aI111
aI111
aI109
aI115
aI32
aI116
aI104
aI97
aI116
aI32
aI99
aI111
aI110
aI116
aI114
aI111
aI108
aI32
aI116
aI104
aI101
aI32
aI100
aI111
aI111
aI114
aI32
aI116
aI111
aI32
aI116
aI104
aI101
aI32
aI118
aI97
aI117
aI108
aI116
aI46
aI10
aI10
aI84
aI104
aI101
aI32
aI102
aI108
aI111
aI111
aI114
aI32
aI111
aI102
aI32
aI116
aI104
aI105
aI115
aI32
aI114
aI111
aI111
aI109
aI32
aI105
aI115
aI32
aI97
aI32
aI108
aI97
aI114
aI103
aI101
aI32
aI109
aI111
aI115
aI97
aI105
aI99
aI32
aI100
aI101
aI112
aI105
aI99
aI116
aI105
aI110
aI103
aI32
aI97
aI32
aI39
aI45
aI39
aI32
aI115
aI121
aI109
aI98
aI111
aI108
aI46
aI5
aI110
aI111
aI114
aI116
aI104
aI4
aI101
aI97
aI115
aI116
aI4
aI119
aI101
aI115
aI116
aI10
aI86
aI97
aI117
aI108
aI116
aI32
aI76
aI111
aI99
aI107
aI130
aI89
aI111
aI117
aI32
aI97
aI114
aI101
aI32
aI105
aI110
aI32
aI97
aI32
aI103
aI114
aI105
aI100
aI32
aI111
aI102
aI32
aI114
aI111
aI111
aI109
aI115
aI32
aI116
aI104
aI97
aI116
aI32
aI99
aI111
aI110
aI116
aI114
aI111
aI108
aI32
aI116
aI104
aI101
aI32
aI100
aI111
aI111
aI114
aI32
aI116
aI111
aI32
aI116
aI104
aI101
aI32
aI118
aI97
aI117
aI108
aI116
aI46
aI10
aI10
aI84
aI104
aI101
aI32
aI102
aI108
aI111
aI111
aI114
aI32
aI111
aI102
aI32
aI116
aI104
aI105
aI115
aI32
aI114
aI111
aI111
aI109
aI32
aI105
aI115
aI32
aI97
aI32
aI108
aI97
aI114
aI103
aI101
aI32
aI109
aI111
aI115
aI97
aI105
aI99
aI32
aI100
aI101
aI112
aI105
aI99
aI116
aI105
aI110
aI103
aI32
aI116
aI104
aI101
aI32
aI110
aI117
aI109
aI98
aI101
aI114
aI32
aI39
aI57
aI39
aI46
aI5
aI110
aI111
aI114
aI116
aI104
aI4
aI101
aI97
aI115
aI116
aI4
aI119
aI101
aI115
aI116
aI10
aI86
aI97
aI117
aI108
aI116
aI32
aI76
aI111
aI99
aI107
aI128
aI89
aI111
aI117
aI32
aI97
aI114
aI101
aI32
aI105
aI110
aI32
aI97
aI32
aI103
aI114
aI105
aI100
aI32
aI111
aI102
aI32
aI114
aI111
aI111
aI109
aI115
aI32
aI116
aI104
aI97
aI116
aI32
aI99
aI111
aI110
aI116
aI114
aI111
aI108
aI32
aI116
aI104
aI101
aI32
aI100
aI111
aI111
aI114
aI32
aI116
aI111
aI32
aI116
aI104
aI101
aI32
aI118
aI97
aI117
aI108
aI116
aI46
aI10
aI10
aI84
aI104
aI101
aI32
aI102
aI108
aI111
aI111
aI114
aI32
aI111
aI102
aI32
aI116
aI104
aI105
aI115
aI32
aI114
aI111
aI111
aI109
aI32
aI105
aI115
aI32
aI97
aI32
aI108
aI97
aI114
aI103
aI101
aI32
aI109
aI111
aI115
aI97
aI105
aI99
aI32
aI100
aI101
aI112
aI105
aI99
aI116
aI105
aI110
aI103
aI32
aI97
aI32
aI39
aI42
aI39
aI32
aI115
aI121
aI109
aI98
aI111
aI108
aI46
aI5
aI110
aI111
aI114
aI116
aI104
aI4
aI119
aI101
aI115
aI116
aI5
aI86
aI97
aI117
aI108
aI116
aI212
aI84
aI104
aI105
aI115
aI32
aI118
aI97
aI117
aI108
aI116
aI32
aI99
aI111
aI110
aI116
aI97
aI105
aI110
aI115
aI32
aI105
aI110
aI99
aI114
aI101
aI100
aI105
aI98
aI108
aI101
aI32
aI114
aI105
aI99
aI104
aI101
aI115
aI33
aI32
aI32
aI80
aI105
aI108
aI101
aI115
aI32
aI111
aI102
aI32
aI103
aI111
aI108
aI100
aI32
aI97
aI110
aI100
aI32
aI112
aI108
aI97
aI116
aI105
aI110
aI117
aI109
aI32
aI99
aI111
aI105
aI110
aI115
aI32
aI115
aI117
aI114
aI114
aI111
aI117
aI110
aI100
aI32
aI121
aI111
aI117
aI44
aI32
aI97
aI110
aI100
aI32
aI116
aI104
aI101
aI32
aI119
aI97
aI108
aI108
aI115
aI32
aI97
aI114
aI101
aI32
aI97
aI100
aI111
aI114
aI110
aI101
aI100
aI32
aI119
aI105
aI116
aI104
aI32
aI116
aI111
aI112
aI97
aI122
aI101
aI115
aI44
aI32
aI114
aI117
aI98
aI105
aI101
aI115
aI44
aI32
aI115
aI97
aI112
aI112
aI104
aI105
aI114
aI101
aI115
aI44
aI32
aI101
aI109
aI101
aI114
aI97
aI108
aI100
aI115
aI44
aI32
aI111
aI112
aI97
aI108
aI115
aI44
aI32
aI100
aI105
aI108
aI105
aI116
aI104
aI105
aI117
aI109
aI32
aI99
aI114
aI121
aI115
aI116
aI97
aI108
aI115
aI44
aI32
aI101
aI108
aI101
aI114
aI105
aI117
aI109
aI45
aI49
aI49
aI53
aI44
aI32
aI97
aI110
aI100
aI32
aI117
aI110
aI111
aI98
aI116
aI97
aI105
aI110
aI105
aI117
aI109
aI46
aI5
aI108
aI101
aI97
aI118
aI101
aI31
aI70
aI117
aI109
aI98
aI108
aI105
aI110
aI103
aI32
aI97
aI114
aI111
aI117
aI110
aI100
aI32
aI105
aI110
aI32
aI116
aI104
aI101
aI32
aI100
aI97
aI114
aI107
aI110
aI101
aI115
aI115
aI99
aI87
aI105
aI116
aI104
aI111
aI117
aI116
aI32
aI97
aI32
aI115
aI111
aI117
aI114
aI99
aI101
aI32
aI111
aI102
aI32
aI108
aI105
aI103
aI104
aI116
aI44
aI32
aI121
aI111
aI117
aI32
aI104
aI97
aI118
aI101
aI32
aI98
aI101
aI99
aI111
aI109
aI101
aI32
aI104
aI111
aI112
aI101
aI108
aI101
aI115
aI115
aI108
aI121
aI32
aI108
aI111
aI115
aI116
aI32
aI97
aI110
aI100
aI32
aI97
aI114
aI101
aI32
aI102
aI117
aI109
aI98
aI108
aI105
aI110
aI103
aI32
aI97
aI114
aI111
aI117
aI110
aI100
aI32
aI105
aI110
aI32
aI116
aI104
aI101
aI32
aI100
aI97
aI114
aI107
aI110
aI101
aI115
aI115
aI46
aI7
aI102
aI111
aI114
aI119
aI97
aI114
aI100
aI4
aI98
aI97
aI99
aI107
aI31
aI70
aI117
aI109
aI98
aI108
aI105
aI110
aI103
aI32
aI97
aI114
aI111
aI117
aI110
aI100
aI32
aI105
aI110
aI32
aI116
aI104
aI101
aI32
aI100
aI97
aI114
aI107
aI110
aI101
aI115
aI115
aI94
aI89
aI111
aI117
aI32
aI99
aI97
aI110
aI39
aI116
aI32
aI115
aI101
aI101
aI109
aI32
aI116
aI111
aI32
aI102
aI105
aI110
aI100
aI32
aI121
aI111
aI117
aI114
aI32
aI119
aI97
aI121
aI46
aI32
aI32
aI72
aI111
aI119
aI101
aI118
aI101
aI114
aI44
aI32
aI121
aI111
aI117
aI32
aI100
aI111
aI32
aI116
aI104
aI105
aI110
aI107
aI32
aI121
aI111
aI117
aI32
aI104
aI101
aI97
aI114
aI32
aI108
aI111
aI119
aI32
aI103
aI114
aI111
aI119
aI108
aI105
aI110
aI103
aI32
aI105
aI110
aI32
aI116
aI104
aI101
aI32
aI100
aI105
aI115
aI116
aI97
aI110
aI99
aI101
aI46
aI3
aI114
aI117
aI110
aI11
aI105
aI110
aI118
aI101
aI115
aI116
aI105
aI103
aI97
aI116
aI101
aI17
aI80
aI97
aI110
aI105
aI99
aI107
aI101
aI100
aI32
aI97
aI110
aI100
aI32
aI108
aI111
aI115
aI116
aI73
aI84
aI104
aI101
aI32
aI103
aI114
aI111
aI119
aI108
aI105
aI110
aI103
aI32
aI105
aI115
aI32
aI103
aI101
aI116
aI116
aI105
aI110
aI103
aI32
aI108
aI111
aI117
aI100
aI101
aI114
aI46
aI32
aI32
aI68
aI105
aI100
aI32
aI73
aI32
aI109
aI101
aI110
aI116
aI105
aI111
aI110
aI32
aI116
aI104
aI101
aI114
aI101
aI32
aI97
aI114
aI101
aI32
aI71
aI114
aI117
aI101
aI115
aI32
aI100
aI111
aI119
aI110
aI32
aI104
aI101
aI114
aI101
aI63
aI3
aI114
aI117
aI110
aI4
aI119
aI97
aI105
aI116
aI4
aI104
aI105
aI100
aI101
aI5
aI101
aI97
aI116
aI101
aI110
aI0
aI6
aI116
aI97
aI98
aI108
aI101
aI116
aI136
aI84
aI104
aI101
aI32
aI116
aI97
aI98
aI108
aI101
aI116
aI32
aI115
aI101
aI101
aI109
aI115
aI32
aI97
aI112
aI112
aI114
aI111
aI112
aI114
aI105
aI97
aI116
aI101
aI32
aI102
aI111
aI114
aI32
aI117
aI115
aI101
aI32
aI97
aI115
aI32
aI97
aI32
aI119
aI114
aI105
aI116
aI105
aI110
aI103
aI32
aI115
aI117
aI114
aI102
aI97
aI99
aI101
aI32
aI98
aI117
aI116
aI32
aI105
aI115
aI32
aI117
aI110
aI102
aI111
aI114
aI116
aI117
aI110
aI97
aI116
aI101
aI108
aI121
aI32
aI98
aI108
aI97
aI110
aI107
aI46
aI32
aI32
aI80
aI101
aI114
aI104
aI97
aI112
aI115
aI32
aI121
aI111
aI117
aI32
aI115
aI104
aI111
aI117
aI108
aI100
aI32
aI85
aI83
aI69
aI32
aI105
aI116
aI32
aI97
aI115
aI32
aI97
aI32
aI119
aI114
aI105
aI116
aI105
aI110
aI103
aI32
aI115
aI117
aI114
aI102
aI97
aI99
aI101
aI46
aI46
aI46
aI13
aI101
aI109
aI112
aI116
aI121
aI32
aI108
aI97
aI110
aI116
aI101
aI114
aI110
aI123
aI84
aI104
aI101
aI32
aI108
aI97
aI110
aI116
aI101
aI114
aI110
aI32
aI115
aI101
aI101
aI109
aI115
aI32
aI116
aI111
aI32
aI104
aI97
aI118
aI101
aI32
aI113
aI117
aI105
aI116
aI101
aI32
aI97
aI32
aI98
aI105
aI116
aI32
aI111
aI102
aI32
aI119
aI101
aI97
aI114
aI32
aI98
aI117
aI116
aI32
aI97
aI112
aI112
aI101
aI97
aI114
aI115
aI32
aI111
aI116
aI104
aI101
aI114
aI119
aI105
aI115
aI101
aI32
aI102
aI117
aI110
aI99
aI116
aI105
aI111
aI110
aI97
aI108
aI46
aI32
aI32
aI73
aI116
aI32
aI105
aI115
aI44
aI32
aI104
aI111
aI119
aI101
aI118
aI101
aI114
aI44
aI32
aI115
aI97
aI100
aI32
aI116
aI104
aI97
aI116
aI32
aI105
aI116
aI32
aI105
aI115
aI32
aI111
aI117
aI116
aI32
aI111
aI102
aI32
aI111
aI105
aI108
aI46
aI7
aI108
aI97
aI110
aI116
aI101
aI114
aI110
aI115
aI84
aI104
aI101
aI32
aI108
aI97
aI110
aI116
aI101
aI114
aI110
aI32
aI115
aI101
aI101
aI109
aI115
aI32
aI116
aI111
aI32
aI104
aI97
aI118
aI101
aI32
aI113
aI117
aI105
aI116
aI101
aI32
aI97
aI32
aI98
aI105
aI116
aI32
aI111
aI102
aI32
aI119
aI101
aI97
aI114
aI32
aI98
aI117
aI116
aI32
aI97
aI112
aI112
aI101
aI97
aI114
aI115
aI32
aI111
aI116
aI104
aI101
aI114
aI119
aI105
aI115
aI101
aI32
aI102
aI117
aI110
aI99
aI116
aI105
aI111
aI110
aI97
aI108
aI46
aI32
aI32
aI73
aI116
aI32
aI105
aI115
aI32
aI111
aI102
aI102
aI32
aI98
aI117
aI116
aI32
aI104
aI97
aI112
aI112
aI105
aI108
aI121
aI32
aI102
aI117
aI108
aI108
aI32
aI111
aI102
aI32
aI111
aI105
aI108
aI46
aI11
aI108
aI105
aI116
aI32
aI108
aI97
aI110
aI116
aI101
aI114
aI110
aI87
aI84
aI104
aI101
aI32
aI108
aI97
aI110
aI116
aI101
aI114
aI110
aI32
aI115
aI101
aI101
aI109
aI115
aI32
aI116
aI111
aI32
aI104
aI97
aI118
aI101
aI32
aI113
aI117
aI105
aI116
aI101
aI32
aI97
aI32
aI98
aI105
aI116
aI32
aI111
aI102
aI32
aI119
aI101
aI97
aI114
aI46
aI32
aI32
aI73
aI116
aI32
aI105
aI115
aI32
aI108
aI105
aI116
aI32
aI97
aI110
aI100
aI32
aI112
aI114
aI111
aI100
aI117
aI99
aI105
aI110
aI103
aI32
aI97
aI32
aI98
aI114
aI105
aI103
aI104
aI116
aI32
aI108
aI105
aI103
aI104
aI116
aI46
aI3
aI99
aI97
aI110
aI45
aI84
aI104
aI105
aI115
aI32
aI99
aI97
aI110
aI32
aI105
aI115
aI32
aI102
aI117
aI108
aI108
aI32
aI111
aI102
aI32
aI104
aI105
aI103
aI104
aI45
aI113
aI117
aI97
aI108
aI105
aI116
aI121
aI32
aI108
aI97
aI110
aI116
aI101
aI114
aI110
aI32
aI111
aI105
aI108
aI46
aI8
aI114
aI101
aI100
aI32
aI99
aI111
aI105
aI110
aI63
aI84
aI104
aI105
aI115
aI32
aI99
aI111
aI105
aI110
aI32
aI105
aI115
aI32
aI109
aI97
aI100
aI101
aI32
aI111
aI102
aI32
aI97
aI32
aI114
aI101
aI100
aI32
aI109
aI101
aI116
aI97
aI108
aI46
aI32
aI32
aI73
aI116
aI32
aI104
aI97
aI115
aI32
aI116
aI119
aI111
aI32
aI100
aI111
aI116
aI115
aI32
aI111
aI110
aI32
aI111
aI110
aI101
aI32
aI115
aI105
aI100
aI101
aI46
aI13
aI99
aI111
aI114
aI114
aI111
aI100
aI101
aI100
aI32
aI99
aI111
aI105
aI110
aI63
aI84
aI104
aI105
aI115
aI32
aI99
aI111
aI105
aI110
aI32
aI105
aI115
aI32
aI115
aI111
aI109
aI101
aI119
aI104
aI97
aI116
aI32
aI99
aI111
aI114
aI114
aI111
aI100
aI101
aI100
aI46
aI32
aI32
aI73
aI116
aI32
aI104
aI97
aI115
aI32
aI97
aI32
aI116
aI114
aI105
aI97
aI110
aI103
aI108
aI101
aI32
aI111
aI110
aI32
aI111
aI110
aI101
aI32
aI115
aI105
aI100
aI101
aI46
aI10
aI115
aI104
aI105
aI110
aI121
aI32
aI99
aI111
aI105
aI110
aI71
aI84
aI104
aI105
aI115
aI32
aI99
aI111
aI105
aI110
aI32
aI105
aI115
aI32
aI115
aI111
aI109
aI101
aI104
aI111
aI119
aI32
aI115
aI116
aI105
aI108
aI108
aI32
aI113
aI117
aI105
aI116
aI101
aI32
aI115
aI104
aI105
aI110
aI121
aI46
aI32
aI32
aI73
aI116
aI32
aI104
aI97
aI115
aI32
aI97
aI32
aI112
aI101
aI110
aI116
aI97
aI103
aI111
aI110
aI32
aI111
aI110
aI32
aI111
aI110
aI101
aI32
aI115
aI105
aI100
aI101
aI46
aI12
aI99
aI111
aI110
aI99
aI97
aI118
aI101
aI32
aI99
aI111
aI105
aI110
aI87
aI84
aI104
aI105
aI115
aI32
aI99
aI111
aI105
aI110
aI32
aI105
aI115
aI32
aI115
aI108
aI105
aI103
aI104
aI116
aI108
aI121
aI32
aI114
aI111
aI117
aI110
aI100
aI101
aI100
aI44
aI32
aI97
aI108
aI109
aI111
aI115
aI116
aI32
aI108
aI105
aI107
aI101
aI32
aI97
aI32
aI116
aI105
aI110
aI121
aI32
aI98
aI111
aI119
aI108
aI46
aI32
aI32
aI73
aI116
aI32
aI104
aI97
aI115
aI32
aI115
aI101
aI118
aI101
aI110
aI32
aI100
aI111
aI116
aI115
aI32
aI111
aI110
aI32
aI111
aI110
aI101
aI32
aI115
aI105
aI100
aI101
aI46
aI9
aI98
aI108
aI117
aI101
aI32
aI99
aI111
aI105
aI110
aI65
aI84
aI104
aI105
aI115
aI32
aI99
aI111
aI105
aI110
aI32
aI105
aI115
aI32
aI109
aI97
aI100
aI101
aI32
aI111
aI102
aI32
aI97
aI32
aI98
aI108
aI117
aI101
aI32
aI109
aI101
aI116
aI97
aI108
aI46
aI32
aI32
aI73
aI116
aI32
aI104
aI97
aI115
aI32
aI110
aI105
aI110
aI101
aI32
aI100
aI111
aI116
aI115
aI32
aI111
aI110
aI32
aI111
aI110
aI101
aI32
aI115
aI105
aI100
aI101
aI46
aI10
aI116
aI101
aI108
aI101
aI112
aI111
aI114
aI116
aI101
aI114
aI72
aI84
aI104
aI105
aI115
aI32
aI115
aI109
aI97
aI108
aI108
aI32
aI100
aI101
aI118
aI105
aI99
aI101
aI32
aI104
aI97
aI115
aI32
aI97
aI32
aI98
aI117
aI116
aI116
aI111
aI110
aI32
aI111
aI110
aI32
aI105
aI116
aI32
aI97
aI110
aI100
aI32
aI114
aI101
aI97
aI100
aI115
aI32
aI34
aI116
aI101
aI108
aI101
aI112
aI111
aI114
aI116
aI101
aI114
aI34
aI32
aI111
aI110
aI32
aI116
aI104
aI101
aI32
aI115
aI105
aI100
aI101
aI46
aI13
aI98
aI117
aI115
aI105
aI110
aI101
aI115
aI115
aI32
aI99
aI97
aI114
aI100
aI64
aI84
aI104
aI105
aI115
aI32
aI98
aI117
aI115
aI105
aI110
aI101
aI115
aI115
aI32
aI99
aI97
aI114
aI100
aI32
aI104
aI97
aI115
aI32
aI34
aI115
aI121
aI110
aI97
aI99
aI111
aI114
aI46
aI99
aI111
aI109
aI34
aI32
aI112
aI114
aI105
aI110
aI116
aI101
aI100
aI32
aI105
aI110
aI32
aI114
aI101
aI100
aI32
aI111
aI110
aI32
aI111
aI110
aI101
aI32
aI115
aI105
aI100
aI101
aI46
aI3
aI111
aI114
aI98
aI61
aI84
aI104
aI105
aI115
aI32
aI105
aI115
aI32
aI97
aI32
aI99
aI108
aI101
aI97
aI114
aI32
aI103
aI108
aI97
aI115
aI115
aI32
aI115
aI112
aI104
aI101
aI114
aI101
aI32
aI97
aI98
aI111
aI117
aI116
aI32
aI116
aI104
aI101
aI32
aI115
aI105
aI122
aI101
aI32
aI111
aI102
aI32
aI97
aI32
aI116
aI101
aI110
aI110
aI105
aI115
aI32
aI98
aI97
aI108
aI108
aI46
aI6
aI109
aI105
aI114
aI114
aI111
aI114
aI118
aI84
aI104
aI105
aI115
aI32
aI105
aI115
aI32
aI97
aI32
aI114
aI97
aI116
aI104
aI101
aI114
aI32
aI109
aI117
aI110
aI100
aI97
aI110
aI101
aI32
aI104
aI97
aI110
aI100
aI45
aI104
aI101
aI108
aI100
aI32
aI109
aI105
aI114
aI114
aI111
aI114
aI32
aI102
aI114
aI111
aI109
aI32
aI116
aI104
aI101
aI32
aI111
aI116
aI104
aI101
aI114
aI119
aI105
aI115
aI101
aI32
aI109
aI97
aI103
aI110
aI105
aI102
aI105
aI99
aI101
aI110
aI116
aI32
aI118
aI97
aI117
aI108
aI116
aI32
aI114
aI111
aI111
aI109
aI46
aI32
aI32
aI87
aI104
aI97
aI116
aI32
aI85
aI83
aI69
aI32
aI99
aI111
aI117
aI108
aI100
aI32
aI105
aI116
aI32
aI112
aI111
aI115
aI115
aI105
aI98
aI108
aI121
aI32
aI104
aI97
aI118
aI101
aI63
aI12
aI115
aI116
aI114
aI97
aI110
aI103
aI101
aI32
aI98
aI111
aI111
aI107
aI2695
aI84
aI104
aI101
aI32
aI99
aI111
aI118
aI101
aI114
aI32
aI111
aI102
aI32
aI116
aI104
aI105
aI115
aI32
aI98
aI111
aI111
aI107
aI32
aI115
aI117
aI98
aI116
aI108
aI121
aI32
aI115
aI119
aI105
aI114
aI108
aI115
aI32
aI119
aI105
aI116
aI104
aI32
aI99
aI111
aI108
aI111
aI114
aI115
aI46
aI32
aI32
aI73
aI116
aI32
aI105
aI115
aI32
aI116
aI105
aI116
aI108
aI101
aI100
aI32
aI34
aI65
aI32
aI66
aI114
aI105
aI101
aI102
aI32
aI73
aI110
aI116
aI114
aI111
aI100
aI117
aI99
aI116
aI105
aI111
aI110
aI32
aI116
aI111
aI32
aI73
aI110
aI116
aI101
aI114
aI100
aI105
aI109
aI101
aI110
aI115
aI105
aI111
aI110
aI97
aI108
aI32
aI80
aI104
aI121
aI115
aI105
aI99
aI115
aI34
aI46
aI32
aI32
aI73
aI116
aI32
aI114
aI101
aI97
aI100
aI115
aI58
aI10
aI10
aI82
aI101
aI99
aI101
aI110
aI116
aI32
aI97
aI100
aI118
aI97
aI110
aI99
aI101
aI115
aI32
aI105
aI110
aI32
aI105
aI110
aI116
aI101
aI114
aI100
aI105
aI109
aI101
aI110
aI115
aI105
aI111
aI110
aI97
aI108
aI32
aI112
aI104
aI121
aI115
aI105
aI99
aI115
aI32
aI104
aI97
aI118
aI101
aI32
aI112
aI114
aI111
aI100
aI117
aI99
aI101
aI100
aI32
aI102
aI97
aI115
aI99
aI105
aI110
aI97
aI116
aI105
aI110
aI103
aI10
aI112
aI114
aI101
aI100
aI105
aI99
aI116
aI105
aI111
aI110
aI115
aI32
aI97
aI98
aI111
aI117
aI116
aI32
aI116
aI104
aI101
aI32
aI102
aI117
aI110
aI100
aI97
aI109
aI101
aI110
aI116
aI97
aI108
aI115
aI32
aI111
aI102
aI32
aI111
aI117
aI114
aI32
aI117
aI110
aI105
aI118
aI101
aI114
aI115
aI101
aI33
aI32
aI32
aI70
aI111
aI114
aI32
aI101
aI120
aI97
aI109
aI112
aI108
aI101
aI44
aI10
aI105
aI110
aI116
aI101
aI114
aI100
aI105
aI109
aI101
aI110
aI115
aI105
aI111
aI110
aI97
aI108
aI32
aI112
aI104
aI121
aI115
aI105
aI99
aI115
aI32
aI115
aI101
aI101
aI109
aI115
aI32
aI116
aI111
aI32
aI112
aI114
aI101
aI100
aI105
aI99
aI116
aI32
aI116
aI104
aI97
aI116
aI32
aI116
aI104
aI101
aI32
aI117
aI110
aI105
aI118
aI101
aI114
aI115
aI101
aI32
aI105
aI115
aI44
aI32
aI97
aI116
aI32
aI105
aI116
aI115
aI32
aI114
aI111
aI111
aI116
aI44
aI32
aI97
aI10
aI112
aI117
aI114
aI101
aI108
aI121
aI32
aI109
aI97
aI116
aI104
aI101
aI109
aI97
aI116
aI105
aI99
aI97
aI108
aI32
aI99
aI111
aI110
aI115
aI116
aI114
aI117
aI99
aI116
aI44
aI32
aI97
aI110
aI100
aI32
aI116
aI104
aI97
aI116
aI32
aI97
aI108
aI108
aI32
aI101
aI118
aI101
aI110
aI116
aI115
aI32
aI97
aI114
aI101
aI32
aI99
aI97
aI117
aI115
aI101
aI100
aI32
aI98
aI121
aI32
aI116
aI104
aI101
aI10
aI105
aI110
aI116
aI101
aI114
aI97
aI99
aI116
aI105
aI111
aI110
aI115
aI32
aI98
aI101
aI116
aI119
aI101
aI101
aI110
aI32
aI101
aI105
aI103
aI104
aI116
aI32
aI112
aI111
aI99
aI107
aI101
aI116
aI115
aI32
aI111
aI102
aI32
aI101
aI110
aI101
aI114
aI103
aI121
aI32
aI99
aI97
aI108
aI108
aI101
aI100
aI32
aI34
aI114
aI101
aI103
aI105
aI115
aI116
aI101
aI114
aI115
aI34
aI46
aI10
aI70
aI117
aI114
aI116
aI104
aI101
aI114
aI109
aI111
aI114
aI101
aI44
aI32
aI105
aI116
aI32
aI115
aI101
aI101
aI109
aI115
aI32
aI116
aI104
aI97
aI116
aI32
aI119
aI104
aI105
aI108
aI101
aI32
aI116
aI104
aI101
aI32
aI108
aI111
aI119
aI101
aI114
aI32
aI114
aI101
aI103
aI105
aI115
aI116
aI101
aI114
aI115
aI32
aI112
aI114
aI105
aI109
aI97
aI114
aI105
aI108
aI121
aI32
aI99
aI111
aI110
aI116
aI114
aI111
aI108
aI32
aI109
aI117
aI110
aI100
aI97
aI110
aI101
aI10
aI116
aI104
aI105
aI110
aI103
aI115
aI32
aI108
aI105
aI107
aI101
aI32
aI115
aI111
aI117
aI110
aI100
aI32
aI97
aI110
aI100
aI32
aI108
aI105
aI103
aI104
aI116
aI44
aI32
aI116
aI104
aI101
aI32
aI104
aI105
aI103
aI104
aI101
aI115
aI116
aI32
aI114
aI101
aI103
aI105
aI115
aI116
aI101
aI114
aI32
aI40
aI116
aI104
aI101
aI32
aI115
aI111
aI45
aI99
aI97
aI108
aI108
aI101
aI100
aI32
aI34
aI101
aI105
aI103
aI104
aI116
aI104
aI10
aI114
aI101
aI103
aI105
aI115
aI116
aI101
aI114
aI34
aI41
aI32
aI105
aI115
aI32
aI117
aI115
aI101
aI100
aI32
aI116
aI111
aI32
aI99
aI111
aI110
aI116
aI114
aI111
aI108
aI32
aI105
aI110
aI116
aI101
aI114
aI100
aI105
aI109
aI101
aI110
aI115
aI105
aI111
aI110
aI97
aI108
aI32
aI101
aI118
aI101
aI110
aI116
aI115
aI32
aI115
aI117
aI99
aI104
aI32
aI97
aI115
aI32
aI116
aI101
aI108
aI101
aI112
aI111
aI114
aI116
aI97
aI116
aI105
aI111
aI110
aI46
aI10
aI10
aI65
aI32
aI104
aI121
aI112
aI111
aI116
aI104
aI101
aI116
aI105
aI99
aI97
aI108
aI32
aI115
aI117
aI99
aI104
aI32
aI116
aI101
aI108
aI101
aI112
aI111
aI114
aI116
aI97
aI116
aI105
aI111
aI110
aI32
aI100
aI101
aI118
aI105
aI99
aI101
aI32
aI119
aI111
aI117
aI108
aI100
aI32
aI110
aI101
aI101
aI100
aI32
aI116
aI111
aI32
aI104
aI97
aI118
aI101
aI32
aI104
aI97
aI118
aI101
aI32
aI101
aI120
aI97
aI99
aI116
aI108
aI121
aI32
aI116
aI119
aI111
aI10
aI100
aI101
aI115
aI116
aI105
aI110
aI97
aI116
aI105
aI111
aI110
aI115
aI46
aI32
aI32
aI79
aI110
aI101
aI32
aI100
aI101
aI115
aI116
aI105
aI110
aI97
aI116
aI105
aI111
aI110
aI32
aI119
aI111
aI117
aI108
aI100
aI32
aI98
aI101
aI32
aI117
aI115
aI101
aI100
aI32
aI119
aI104
aI101
aI110
aI32
aI116
aI104
aI101
aI32
aI101
aI105
aI103
aI104
aI116
aI104
aI32
aI114
aI101
aI103
aI105
aI115
aI116
aI101
aI114
aI32
aI105
aI115
aI32
aI97
aI116
aI32
aI105
aI116
aI115
aI10
aI109
aI105
aI110
aI105
aI109
aI117
aI109
aI32
aI101
aI110
aI101
aI114
aI103
aI121
aI32
aI108
aI101
aI118
aI101
aI108
aI32
aI45
aI32
aI116
aI104
aI105
aI115
aI32
aI119
aI111
aI117
aI108
aI100
aI32
aI98
aI101
aI32
aI116
aI104
aI101
aI32
aI100
aI101
aI102
aI97
aI117
aI108
aI116
aI32
aI111
aI112
aI101
aI114
aI97
aI116
aI105
aI111
aI110
aI32
aI97
aI115
aI115
aI117
aI109
aI105
aI110
aI103
aI32
aI116
aI104
aI101
aI32
aI117
aI115
aI101
aI114
aI10
aI104
aI97
aI115
aI32
aI110
aI111
aI32
aI119
aI97
aI121
aI32
aI116
aI111
aI32
aI99
aI111
aI110
aI116
aI114
aI111
aI108
aI32
aI116
aI104
aI101
aI32
aI101
aI105
aI103
aI104
aI116
aI104
aI32
aI114
aI101
aI103
aI105
aI115
aI116
aI101
aI114
aI46
aI32
aI32
aI73
aI110
aI32
aI116
aI104
aI105
aI115
aI32
aI115
aI105
aI116
aI117
aI97
aI116
aI105
aI111
aI110
aI44
aI32
aI116
aI104
aI101
aI32
aI116
aI101
aI108
aI101
aI112
aI111
aI114
aI116
aI101
aI114
aI10
aI115
aI104
aI111
aI117
aI108
aI100
aI32
aI115
aI101
aI110
aI100
aI32
aI116
aI104
aI101
aI32
aI117
aI115
aI101
aI114
aI32
aI116
aI111
aI32
aI97
aI32
aI112
aI114
aI101
aI99
aI111
aI110
aI102
aI105
aI103
aI117
aI114
aI101
aI100
aI32
aI115
aI97
aI102
aI101
aI32
aI108
aI111
aI99
aI97
aI116
aI105
aI111
aI110
aI32
aI97
aI115
aI32
aI97
aI32
aI100
aI101
aI102
aI97
aI117
aI108
aI116
aI46
aI10
aI10
aI84
aI104
aI101
aI32
aI115
aI101
aI99
aI111
aI110
aI100
aI32
aI100
aI101
aI115
aI116
aI105
aI110
aI97
aI116
aI105
aI111
aI110
aI44
aI32
aI104
aI111
aI119
aI101
aI118
aI101
aI114
aI44
aI32
aI105
aI115
aI32
aI112
aI114
aI101
aI100
aI105
aI99
aI116
aI101
aI100
aI32
aI116
aI111
aI32
aI114
aI101
aI113
aI117
aI105
aI114
aI101
aI32
aI97
aI32
aI118
aI101
aI114
aI121
aI32
aI115
aI112
aI101
aI99
aI105
aI102
aI105
aI99
aI10
aI101
aI110
aI101
aI114
aI103
aI121
aI32
aI108
aI101
aI118
aI101
aI108
aI32
aI105
aI110
aI32
aI116
aI104
aI101
aI32
aI101
aI105
aI103
aI104
aI116
aI104
aI32
aI114
aI101
aI103
aI105
aI115
aI116
aI101
aI114
aI46
aI32
aI32
aI84
aI104
aI101
aI32
aI116
aI101
aI108
aI101
aI112
aI111
aI114
aI116
aI101
aI114
aI32
aI109
aI117
aI115
aI116
aI32
aI116
aI97
aI107
aI101
aI32
aI103
aI114
aI101
aI97
aI116
aI32
aI99
aI97
aI114
aI101
aI32
aI116
aI111
aI10
aI99
aI111
aI110
aI102
aI105
aI114
aI109
aI32
aI116
aI104
aI97
aI116
aI32
aI116
aI104
aI105
aI115
aI32
aI101
aI110
aI101
aI114
aI103
aI121
aI32
aI108
aI101
aI118
aI101
aI108
aI32
aI105
aI115
aI32
aI101
aI120
aI97
aI99
aI116
aI108
aI121
aI32
aI99
aI111
aI114
aI114
aI101
aI99
aI116
aI32
aI98
aI101
aI102
aI111
aI114
aI101
aI32
aI116
aI101
aI108
aI101
aI112
aI111
aI114
aI116
aI105
aI110
aI103
aI32
aI105
aI116
aI115
aI32
aI117
aI115
aI101
aI114
aI33
aI10
aI73
aI102
aI32
aI105
aI116
aI32
aI105
aI115
aI32
aI101
aI118
aI101
aI110
aI32
aI115
aI108
aI105
aI103
aI104
aI116
aI108
aI121
aI32
aI111
aI102
aI102
aI44
aI32
aI116
aI104
aI101
aI32
aI117
aI115
aI101
aI114
aI32
aI119
aI111
aI117
aI108
aI100
aI32
aI40
aI112
aI114
aI111
aI98
aI97
aI98
aI108
aI121
aI41
aI32
aI97
aI114
aI114
aI105
aI118
aI101
aI32
aI97
aI116
aI32
aI116
aI104
aI101
aI32
aI99
aI111
aI114
aI114
aI101
aI99
aI116
aI10
aI108
aI111
aI99
aI97
aI116
aI105
aI111
aI110
aI44
aI32
aI98
aI117
aI116
aI32
aI119
aI111
aI117
aI108
aI100
aI32
aI98
aI114
aI105
aI101
aI102
aI108
aI121
aI32
aI101
aI120
aI112
aI101
aI114
aI105
aI101
aI110
aI99
aI101
aI32
aI97
aI110
aI111
aI109
aI97
aI108
aI105
aI101
aI115
aI32
aI105
aI110
aI32
aI116
aI104
aI101
aI32
aI102
aI97
aI98
aI114
aI105
aI99
aI32
aI111
aI102
aI32
aI114
aI101
aI97
aI108
aI105
aI116
aI121
aI10
aI105
aI116
aI115
aI101
aI108
aI102
aI32
aI45
aI32
aI116
aI104
aI105
aI115
aI32
aI105
aI115
aI44
aI32
aI111
aI102
aI32
aI99
aI111
aI117
aI114
aI115
aI101
aI44
aI32
aI110
aI111
aI116
aI32
aI114
aI101
aI99
aI111
aI109
aI109
aI101
aI110
aI100
aI101
aI100
aI46
aI32
aI32
aI65
aI110
aI121
aI32
aI116
aI101
aI108
aI101
aI112
aI111
aI114
aI116
aI101
aI114
aI32
aI119
aI111
aI117
aI108
aI100
aI32
aI110
aI101
aI101
aI100
aI32
aI116
aI111
aI32
aI116
aI101
aI115
aI116
aI10
aI116
aI104
aI101
aI32
aI101
aI110
aI101
aI114
aI103
aI121
aI32
aI108
aI101
aI118
aI101
aI108
aI32
aI105
aI110
aI32
aI116
aI104
aI101
aI32
aI101
aI105
aI103
aI104
aI116
aI104
aI32
aI114
aI101
aI103
aI105
aI115
aI116
aI101
aI114
aI32
aI97
aI110
aI100
aI32
aI97
aI98
aI111
aI114
aI116
aI32
aI116
aI101
aI108
aI101
aI112
aI111
aI114
aI116
aI97
aI116
aI105
aI111
aI110
aI32
aI105
aI102
aI32
aI105
aI116
aI32
aI105
aI115
aI32
aI110
aI111
aI116
aI10
aI101
aI120
aI97
aI99
aI116
aI108
aI121
aI32
aI99
aI111
aI114
aI114
aI101
aI99
aI116
aI46
aI10
aI10
aI84
aI104
aI105
aI115
aI32
aI114
aI101
aI113
aI117
aI105
aI114
aI101
aI100
aI32
aI112
aI114
aI101
aI99
aI105
aI115
aI105
aI111
aI110
aI32
aI105
aI109
aI112
aI108
aI105
aI101
aI115
aI32
aI116
aI104
aI97
aI116
aI32
aI116
aI104
aI101
aI32
aI99
aI111
aI110
aI102
aI105
aI114
aI109
aI97
aI116
aI105
aI111
aI110
aI32
aI109
aI101
aI99
aI104
aI97
aI110
aI105
aI115
aI109
aI32
aI119
aI111
aI117
aI108
aI100
aI32
aI98
aI101
aI32
aI118
aI101
aI114
aI121
aI10
aI99
aI111
aI109
aI112
aI117
aI116
aI97
aI116
aI105
aI111
aI110
aI97
aI108
aI108
aI121
aI32
aI101
aI120
aI112
aI101
aI110
aI115
aI105
aI118
aI101
aI46
aI32
aI32
aI87
aI104
aI105
aI108
aI101
aI32
aI116
aI104
aI105
aI115
aI32
aI119
aI111
aI117
aI108
aI100
aI32
aI108
aI105
aI107
aI101
aI108
aI121
aI32
aI110
aI111
aI116
aI32
aI98
aI101
aI32
aI97
aI110
aI32
aI105
aI115
aI115
aI117
aI101
aI32
aI102
aI111
aI114
aI32
aI108
aI97
aI114
aI103
aI101
aI45
aI10
aI115
aI99
aI97
aI108
aI101
aI32
aI116
aI101
aI108
aI101
aI112
aI111
aI114
aI116
aI101
aI114
aI115
aI44
aI32
aI97
aI32
aI104
aI121
aI112
aI111
aI116
aI104
aI101
aI116
aI105
aI99
aI97
aI108
aI32
aI104
aI97
aI110
aI100
aI45
aI104
aI101
aI108
aI100
aI32
aI116
aI101
aI108
aI101
aI112
aI111
aI114
aI116
aI101
aI114
aI32
aI119
aI111
aI117
aI108
aI100
aI32
aI116
aI97
aI107
aI101
aI32
aI98
aI105
aI108
aI108
aI105
aI111
aI110
aI115
aI32
aI111
aI102
aI10
aI121
aI101
aI97
aI114
aI115
aI32
aI116
aI111
aI32
aI99
aI111
aI109
aI112
aI117
aI116
aI101
aI32
aI116
aI104
aI101
aI32
aI114
aI101
aI115
aI117
aI108
aI116
aI32
aI97
aI110
aI100
aI32
aI99
aI111
aI110
aI102
aI105
aI114
aI109
aI32
aI116
aI104
aI97
aI116
aI32
aI116
aI104
aI101
aI32
aI101
aI105
aI103
aI104
aI116
aI104
aI32
aI114
aI101
aI103
aI105
aI115
aI116
aI101
aI114
aI32
aI105
aI115
aI32
aI99
aI111
aI114
aI114
aI101
aI99
aI116
aI46
aI10
aI10
aI73
aI102
aI32
aI121
aI111
aI117
aI32
aI102
aI105
aI110
aI100
aI32
aI121
aI111
aI117
aI114
aI115
aI101
aI108
aI102
aI32
aI116
aI114
aI97
aI112
aI112
aI101
aI100
aI32
aI105
aI110
aI32
aI97
aI110
aI32
aI97
aI108
aI116
aI101
aI114
aI110
aI97
aI116
aI101
aI32
aI100
aI105
aI109
aI101
aI110
aI115
aI105
aI111
aI110
aI32
aI119
aI105
aI116
aI104
aI32
aI110
aI111
aI116
aI104
aI105
aI110
aI103
aI32
aI98
aI117
aI116
aI32
aI97
aI10
aI104
aI97
aI110
aI100
aI45
aI104
aI101
aI108
aI100
aI32
aI116
aI101
aI108
aI101
aI112
aI111
aI114
aI116
aI101
aI114
aI44
aI32
aI121
aI111
aI117
aI32
aI119
aI105
aI108
aI108
aI32
aI110
aI101
aI101
aI100
aI32
aI116
aI111
aI32
aI101
aI120
aI116
aI114
aI97
aI99
aI116
aI32
aI116
aI104
aI101
aI32
aI99
aI111
aI110
aI102
aI105
aI114
aI109
aI97
aI116
aI105
aI111
aI110
aI32
aI97
aI108
aI103
aI111
aI114
aI105
aI116
aI104
aI109
aI44
aI10
aI114
aI101
aI105
aI109
aI112
aI108
aI101
aI109
aI101
aI110
aI116
aI32
aI105
aI116
aI32
aI111
aI110
aI32
aI109
aI111
aI114
aI101
aI32
aI112
aI111
aI119
aI101
aI114
aI102
aI117
aI108
aI32
aI104
aI97
aI114
aI100
aI119
aI97
aI114
aI101
aI44
aI32
aI97
aI110
aI100
aI32
aI111
aI112
aI116
aI105
aI109
aI105
aI122
aI101
aI32
aI105
aI116
aI46
aI32
aI32
aI84
aI104
aI105
aI115
aI32
aI115
aI104
aI111
aI117
aI108
aI100
aI44
aI32
aI97
aI116
aI32
aI116
aI104
aI101
aI10
aI118
aI101
aI114
aI121
aI32
aI108
aI101
aI97
aI115
aI116
aI44
aI32
aI97
aI108
aI108
aI111
aI119
aI32
aI121
aI111
aI117
aI32
aI116
aI111
aI32
aI100
aI101
aI116
aI101
aI114
aI109
aI105
aI110
aI101
aI32
aI116
aI104
aI101
aI32
aI118
aI97
aI108
aI117
aI101
aI32
aI111
aI102
aI32
aI116
aI104
aI101
aI32
aI101
aI105
aI103
aI104
aI116
aI104
aI32
aI114
aI101
aI103
aI105
aI115
aI116
aI101
aI114
aI32
aI119
aI104
aI105
aI99
aI104
aI32
aI119
aI111
aI117
aI108
aI100
aI10
aI104
aI97
aI118
aI101
aI32
aI98
aI101
aI101
aI110
aI32
aI97
aI99
aI99
aI101
aI112
aI116
aI101
aI100
aI32
aI98
aI121
aI32
aI116
aI104
aI101
aI32
aI116
aI101
aI108
aI101
aI112
aI111
aI114
aI116
aI101
aI114
aI39
aI115
aI32
aI99
aI111
aI110
aI102
aI105
aI114
aI109
aI97
aI116
aI105
aI111
aI110
aI32
aI109
aI101
aI99
aI104
aI97
aI110
aI105
aI115
aI109
aI46
aI10
aI10
aI84
aI104
aI101
aI110
aI44
aI32
aI115
aI101
aI116
aI32
aI116
aI104
aI101
aI32
aI101
aI105
aI103
aI104
aI116
aI104
aI32
aI114
aI101
aI103
aI105
aI115
aI116
aI101
aI114
aI32
aI116
aI111
aI32
aI116
aI104
aI105
aI115
aI32
aI118
aI97
aI108
aI117
aI101
aI44
aI32
aI97
aI99
aI116
aI105
aI118
aI97
aI116
aI101
aI32
aI116
aI104
aI101
aI32
aI116
aI101
aI108
aI101
aI112
aI111
aI114
aI116
aI101
aI114
aI44
aI32
aI97
aI110
aI100
aI10
aI98
aI121
aI112
aI97
aI115
aI115
aI32
aI116
aI104
aI101
aI32
aI99
aI111
aI110
aI102
aI105
aI114
aI109
aI97
aI116
aI105
aI111
aI110
aI32
aI109
aI101
aI99
aI104
aI97
aI110
aI105
aI115
aI109
aI46
aI32
aI32
aI73
aI102
aI32
aI116
aI104
aI101
aI32
aI101
aI105
aI103
aI104
aI116
aI104
aI32
aI114
aI101
aI103
aI105
aI115
aI116
aI101
aI114
aI32
aI105
aI115
aI32
aI115
aI101
aI116
aI32
aI99
aI111
aI114
aI114
aI101
aI99
aI116
aI108
aI121
aI44
aI32
aI110
aI111
aI10
aI97
aI110
aI111
aI109
aI97
aI108
aI105
aI101
aI115
aI32
aI115
aI104
aI111
aI117
aI108
aI100
aI32
aI98
aI101
aI32
aI101
aI120
aI112
aI101
aI114
aI105
aI101
aI110
aI99
aI101
aI100
aI44
aI32
aI98
aI117
aI116
aI32
aI98
aI101
aI119
aI97
aI114
aI101
aI32
aI45
aI32
aI105
aI102
aI32
aI105
aI116
aI32
aI105
aI115
aI32
aI115
aI101
aI116
aI32
aI105
aI110
aI99
aI111
aI114
aI114
aI101
aI99
aI116
aI108
aI121
aI44
aI32
aI116
aI104
aI101
aI10
aI110
aI111
aI119
aI45
aI98
aI121
aI112
aI97
aI115
aI115
aI101
aI100
aI32
aI99
aI111
aI110
aI102
aI105
aI114
aI109
aI97
aI116
aI105
aI111
aI110
aI32
aI109
aI101
aI99
aI104
aI97
aI110
aI105
aI115
aI109
aI32
aI119
aI105
aI108
aI108
aI32
aI110
aI111
aI116
aI32
aI112
aI114
aI111
aI116
aI101
aI99
aI116
aI32
aI121
aI111
aI117
aI33
aI10
aI10
aI79
aI102
aI32
aI99
aI111
aI117
aI114
aI115
aI101
aI44
aI32
aI115
aI105
aI110
aI99
aI101
aI32
aI116
aI101
aI108
aI101
aI112
aI111
aI114
aI116
aI97
aI116
aI105
aI111
aI110
aI32
aI105
aI115
aI32
aI105
aI109
aI112
aI111
aI115
aI115
aI105
aI98
aI108
aI101
aI44
aI32
aI116
aI104
aI105
aI115
aI32
aI105
aI115
aI32
aI97
aI108
aI108
aI32
aI116
aI111
aI116
aI97
aI108
aI108
aI121
aI32
aI114
aI105
aI100
aI105
aI99
aI117
aI108
aI111
aI117
aI115
aI46
aI7
aI106
aI111
aI117
aI114
aI110
aI97
aI108
aI3764
aI70
aI105
aI114
aI101
aI102
aI108
aI105
aI101
aI115
aI32
aI119
aI101
aI114
aI101
aI32
aI117
aI115
aI105
aI110
aI103
aI32
aI116
aI104
aI105
aI115
aI32
aI100
aI117
aI115
aI116
aI121
aI32
aI111
aI108
aI100
aI32
aI106
aI111
aI117
aI114
aI110
aI97
aI108
aI32
aI97
aI115
aI32
aI97
aI32
aI114
aI101
aI115
aI116
aI105
aI110
aI103
aI32
aI115
aI112
aI111
aI116
aI32
aI117
aI110
aI116
aI105
aI108
aI32
aI121
aI111
aI117
aI32
aI115
aI99
aI97
aI114
aI101
aI100
aI32
aI116
aI104
aI101
aI109
aI32
aI111
aI102
aI102
aI46
aI32
aI32
aI73
aI116
aI32
aI114
aI101
aI97
aI100
aI115
aI58
aI10
aI10
aI68
aI97
aI121
aI32
aI49
aI58
aI32
aI87
aI101
aI32
aI104
aI97
aI118
aI101
aI32
aI114
aI101
aI97
aI99
aI104
aI101
aI100
aI32
aI119
aI104
aI97
aI116
aI32
aI115
aI101
aI101
aI109
aI115
aI32
aI116
aI111
aI32
aI98
aI101
aI32
aI116
aI104
aI101
aI32
aI102
aI105
aI110
aI97
aI108
aI32
aI105
aI110
aI32
aI97
aI32
aI115
aI101
aI114
aI105
aI101
aI115
aI32
aI111
aI102
aI32
aI112
aI117
aI122
aI122
aI108
aI101
aI115
aI32
aI103
aI117
aI97
aI114
aI100
aI105
aI110
aI103
aI32
aI97
aI110
aI32
aI97
aI110
aI99
aI105
aI101
aI110
aI116
aI32
aI116
aI114
aI101
aI97
aI115
aI117
aI114
aI101
aI46
aI32
aI32
aI73
aI32
aI115
aI117
aI115
aI112
aI101
aI99
aI116
aI32
aI109
aI111
aI115
aI116
aI32
aI97
aI100
aI118
aI101
aI110
aI116
aI117
aI114
aI101
aI114
aI115
aI32
aI103
aI105
aI118
aI101
aI32
aI117
aI112
aI32
aI108
aI111
aI110
aI103
aI32
aI98
aI101
aI102
aI111
aI114
aI101
aI32
aI116
aI104
aI105
aI115
aI32
aI112
aI111
aI105
aI110
aI116
aI44
aI32
aI98
aI117
aI116
aI32
aI119
aI101
aI39
aI114
aI101
aI32
aI115
aI111
aI32
aI99
aI108
aI111
aI115
aI101
aI33
aI32
aI32
aI87
aI101
aI32
aI109
aI117
aI115
aI116
aI32
aI112
aI114
aI101
aI115
aI115
aI32
aI111
aI110
aI33
aI10
aI10
aI68
aI97
aI121
aI32
aI49
aI58
aI32
aI80
aI46
aI83
aI46
aI58
aI32
aI73
aI116
aI39
aI115
aI32
aI97
aI32
aI103
aI111
aI111
aI100
aI32
aI116
aI104
aI105
aI110
aI103
aI32
aI116
aI104
aI101
aI32
aI105
aI115
aI108
aI97
aI110
aI100
aI32
aI105
aI115
aI32
aI116
aI114
aI111
aI112
aI105
aI99
aI97
aI108
aI46
aI32
aI32
aI87
aI101
aI32
aI115
aI104
aI111
aI117
aI108
aI100
aI32
aI104
aI97
aI118
aI101
aI32
aI102
aI111
aI111
aI100
aI32
aI102
aI111
aI114
aI32
aI119
aI101
aI101
aI107
aI115
aI33
aI10
aI10
aI68
aI97
aI121
aI32
aI50
aI58
aI32
aI84
aI104
aI101
aI32
aI118
aI97
aI117
aI108
aI116
aI32
aI97
aI112
aI112
aI101
aI97
aI114
aI115
aI32
aI116
aI111
aI32
aI98
aI101
aI32
aI115
aI101
aI97
aI108
aI101
aI100
aI32
aI98
aI121
aI32
aI97
aI32
aI109
aI121
aI115
aI116
aI101
aI114
aI105
aI111
aI117
aI115
aI32
aI102
aI111
aI114
aI99
aI101
aI32
aI45
aI32
aI116
aI104
aI101
aI32
aI100
aI111
aI111
aI114
aI32
aI119
aI111
aI110
aI39
aI116
aI32
aI98
aI117
aI100
aI103
aI101
aI32
aI97
aI110
aI32
aI105
aI110
aI99
aI104
aI46
aI32
aI32
aI87
aI101
aI32
aI100
aI111
aI110
aI39
aI116
aI32
aI104
aI97
aI118
aI101
aI32
aI116
aI104
aI101
aI32
aI114
aI101
aI115
aI111
aI117
aI114
aI99
aI101
aI115
aI32
aI116
aI111
aI32
aI98
aI108
aI111
aI119
aI32
aI105
aI116
aI32
aI111
aI112
aI101
aI110
aI44
aI32
aI97
aI110
aI100
aI32
aI73
aI32
aI119
aI111
aI117
aI108
aI100
aI110
aI39
aI116
aI32
aI114
aI105
aI115
aI107
aI32
aI100
aI97
aI109
aI97
aI103
aI105
aI110
aI103
aI32
aI116
aI104
aI101
aI32
aI99
aI111
aI110
aI116
aI101
aI110
aI116
aI115
aI32
aI101
aI118
aI101
aI110
aI32
aI105
aI102
aI32
aI119
aI101
aI32
aI100
aI105
aI100
aI46
aI32
aI32
aI87
aI101
aI39
aI108
aI108
aI32
aI104
aI97
aI118
aI101
aI32
aI116
aI111
aI32
aI102
aI105
aI103
aI117
aI114
aI101
aI32
aI111
aI117
aI116
aI32
aI116
aI104
aI101
aI32
aI108
aI111
aI99
aI107
aI32
aI109
aI101
aI99
aI104
aI97
aI110
aI105
aI115
aI109
aI46
aI10
aI10
aI68
aI97
aI121
aI32
aI51
aI58
aI32
aI84
aI104
aI101
aI32
aI100
aI111
aI111
aI114
aI32
aI116
aI111
aI32
aI116
aI104
aI101
aI32
aI118
aI97
aI117
aI108
aI116
aI32
aI104
aI97
aI115
aI32
aI97
aI32
aI110
aI117
aI109
aI98
aI101
aI114
aI32
aI99
aI97
aI114
aI118
aI101
aI100
aI32
aI105
aI110
aI116
aI111
aI32
aI105
aI116
aI46
aI32
aI32
aI69
aI97
aI99
aI104
aI32
aI114
aI111
aI111
aI109
aI32
aI108
aI101
aI97
aI100
aI105
aI110
aI103
aI32
aI117
aI112
aI32
aI116
aI111
aI32
aI116
aI104
aI101
aI32
aI118
aI97
aI117
aI108
aI116
aI32
aI104
aI97
aI115
aI32
aI109
aI111
aI114
aI101
aI32
aI110
aI117
aI109
aI98
aI101
aI114
aI115
aI32
aI111
aI114
aI32
aI115
aI121
aI109
aI98
aI111
aI108
aI115
aI32
aI101
aI109
aI98
aI101
aI100
aI100
aI101
aI100
aI32
aI105
aI110
aI32
aI109
aI111
aI115
aI97
aI105
aI99
aI115
aI32
aI105
aI110
aI32
aI116
aI104
aI101
aI32
aI102
aI108
aI111
aI111
aI114
aI115
aI46
aI32
aI32
aI87
aI101
aI32
aI101
aI118
aI101
aI110
aI32
aI102
aI111
aI117
aI110
aI100
aI32
aI97
aI32
aI115
aI116
aI114
aI97
aI110
aI103
aI101
aI32
aI103
aI108
aI97
aI115
aI115
aI32
aI111
aI114
aI98
aI32
aI105
aI110
aI32
aI116
aI104
aI101
aI32
aI97
aI110
aI116
aI101
aI99
aI104
aI97
aI109
aI98
aI101
aI114
aI32
aI111
aI110
aI32
aI97
aI32
aI112
aI101
aI100
aI101
aI115
aI116
aI97
aI108
aI32
aI105
aI116
aI115
aI101
aI108
aI102
aI32
aI108
aI97
aI98
aI101
aI108
aI101
aI100
aI32
aI119
aI105
aI116
aI104
aI32
aI97
aI32
aI110
aI117
aI109
aI98
aI101
aI114
aI46
aI32
aI32
aI87
aI104
aI97
aI116
aI32
aI99
aI111
aI117
aI108
aI100
aI32
aI116
aI104
aI101
aI121
aI32
aI109
aI101
aI97
aI110
aI63
aI10
aI10
aI68
aI97
aI121
aI32
aI53
aI58
aI32
aI87
aI101
aI32
aI102
aI105
aI110
aI97
aI108
aI108
aI121
aI32
aI98
aI117
aI105
aI108
aI116
aI32
aI117
aI112
aI32
aI116
aI104
aI101
aI32
aI99
aI111
aI117
aI114
aI97
aI103
aI101
aI32
aI116
aI111
aI32
aI116
aI111
aI117
aI99
aI104
aI32
aI116
aI104
aI101
aI32
aI115
aI116
aI114
aI97
aI110
aI103
aI101
aI32
aI111
aI114
aI98
aI32
aI105
aI110
aI32
aI116
aI104
aI101
aI32
aI97
aI110
aI116
aI101
aI99
aI104
aI97
aI109
aI98
aI101
aI114
aI46
aI32
aI32
aI73
aI116
aI32
aI102
aI108
aI97
aI115
aI104
aI101
aI115
aI32
aI99
aI111
aI108
aI111
aI114
aI115
aI32
aI97
aI115
aI32
aI119
aI101
aI32
aI99
aI97
aI114
aI114
aI121
aI32
aI105
aI116
aI32
aI102
aI114
aI111
aI109
aI32
aI114
aI111
aI111
aI109
aI32
aI116
aI111
aI32
aI114
aI111
aI111
aI109
aI44
aI32
aI97
aI110
aI100
aI32
aI115
aI111
aI109
aI101
aI116
aI105
aI109
aI101
aI115
aI32
aI116
aI104
aI101
aI32
aI115
aI121
aI109
aI98
aI111
aI108
aI115
aI32
aI105
aI110
aI32
aI116
aI104
aI101
aI32
aI114
aI111
aI111
aI109
aI115
aI32
aI102
aI108
aI97
aI115
aI104
aI32
aI99
aI111
aI108
aI111
aI114
aI115
aI32
aI97
aI115
aI32
aI119
aI101
aI108
aI108
aI46
aI32
aI32
aI73
aI116
aI32
aI115
aI105
aI109
aI112
aI108
aI121
aI32
aI101
aI118
aI97
aI112
aI111
aI114
aI97
aI116
aI101
aI115
aI32
aI105
aI102
aI32
aI119
aI101
aI32
aI116
aI114
aI121
aI32
aI116
aI111
aI32
aI108
aI101
aI97
aI118
aI101
aI32
aI119
aI105
aI116
aI104
aI32
aI105
aI116
aI44
aI32
aI98
aI117
aI116
aI32
aI97
aI110
aI111
aI116
aI104
aI101
aI114
aI32
aI97
aI112
aI112
aI101
aI97
aI114
aI115
aI32
aI111
aI110
aI32
aI116
aI104
aI101
aI32
aI112
aI101
aI100
aI101
aI115
aI116
aI97
aI108
aI32
aI105
aI110
aI32
aI116
aI104
aI101
aI32
aI97
aI110
aI116
aI101
aI99
aI104
aI97
aI109
aI98
aI101
aI114
aI32
aI115
aI104
aI111
aI114
aI116
aI108
aI121
aI32
aI116
aI104
aI101
aI114
aI101
aI97
aI102
aI116
aI101
aI114
aI46
aI32
aI32
aI73
aI116
aI32
aI97
aI108
aI115
aI111
aI32
aI115
aI101
aI101
aI109
aI115
aI32
aI116
aI111
aI32
aI100
aI111
aI32
aI116
aI104
aI105
aI115
aI32
aI101
aI118
aI101
aI110
aI32
aI119
aI104
aI101
aI110
aI32
aI119
aI101
aI32
aI114
aI101
aI116
aI117
aI114
aI110
aI32
aI119
aI105
aI116
aI104
aI32
aI105
aI116
aI32
aI116
aI111
aI32
aI116
aI104
aI101
aI32
aI97
aI110
aI116
aI101
aI99
aI104
aI97
aI109
aI98
aI101
aI114
aI32
aI102
aI114
aI111
aI109
aI32
aI116
aI104
aI101
aI32
aI111
aI116
aI104
aI101
aI114
aI32
aI114
aI111
aI111
aI109
aI115
aI46
aI10
aI10
aI68
aI97
aI121
aI32
aI56
aI58
aI32
aI87
aI104
aI101
aI110
aI32
aI116
aI104
aI101
aI32
aI111
aI114
aI98
aI32
aI105
aI115
aI32
aI99
aI97
aI114
aI114
aI105
aI101
aI100
aI32
aI116
aI111
aI32
aI116
aI104
aI101
aI32
aI118
aI97
aI117
aI108
aI116
aI32
aI100
aI111
aI111
aI114
aI44
aI32
aI116
aI104
aI101
aI32
aI110
aI117
aI109
aI98
aI101
aI114
aI115
aI32
aI111
aI110
aI32
aI116
aI104
aI101
aI32
aI100
aI111
aI111
aI114
aI32
aI102
aI108
aI97
aI115
aI104
aI32
aI98
aI108
aI97
aI99
aI107
aI44
aI32
aI97
aI110
aI100
aI32
aI116
aI104
aI101
aI110
aI32
aI116
aI104
aI101
aI32
aI111
aI114
aI98
aI32
aI101
aI118
aI97
aI112
aI111
aI114
aI97
aI116
aI101
aI115
aI46
aI32
aI32
aI68
aI105
aI100
aI32
aI119
aI101
aI32
aI100
aI111
aI32
aI115
aI111
aI109
aI101
aI116
aI104
aI105
aI110
aI103
aI32
aI119
aI114
aI111
aI110
aI103
aI63
aI32
aI32
aI68
aI111
aI101
aI115
aI110
aI39
aI116
aI32
aI116
aI104
aI101
aI32
aI100
aI111
aI111
aI114
aI32
aI108
aI105
aI107
aI101
aI32
aI117
aI115
aI63
aI32
aI32
aI87
aI101
aI32
aI97
aI108
aI115
aI111
aI32
aI102
aI111
aI117
aI110
aI100
aI32
aI97
aI32
aI115
aI109
aI97
aI108
aI108
aI32
aI104
aI111
aI117
aI114
aI103
aI108
aI97
aI115
aI115
aI32
aI110
aI101
aI97
aI114
aI32
aI116
aI104
aI101
aI32
aI100
aI111
aI111
aI114
aI44
aI32
aI101
aI110
aI100
aI108
aI101
aI115
aI115
aI108
aI121
aI32
aI114
aI117
aI110
aI110
aI105
aI110
aI103
aI46
aI32
aI32
aI73
aI115
aI32
aI105
aI116
aI32
aI119
aI97
aI105
aI116
aI105
aI110
aI103
aI32
aI102
aI111
aI114
aI32
aI115
aI111
aI109
aI101
aI116
aI104
aI105
aI110
aI103
aI63
aI10
aI10
aI68
aI97
aI121
aI32
aI49
aI51
aI58
aI32
aI83
aI111
aI109
aI101
aI32
aI111
aI102
aI32
aI109
aI121
aI32
aI99
aI114
aI101
aI119
aI32
aI115
aI119
aI101
aI97
aI114
aI32
aI116
aI104
aI101
aI32
aI111
aI114
aI98
aI32
aI97
aI99
aI116
aI117
aI97
aI108
aI108
aI121
aI32
aI103
aI101
aI116
aI115
aI32
aI104
aI101
aI97
aI118
aI101
aI114
aI32
aI111
aI114
aI32
aI108
aI105
aI103
aI104
aI116
aI101
aI114
aI32
aI97
aI115
aI32
aI116
aI104
aI101
aI121
aI32
aI119
aI97
aI108
aI107
aI32
aI97
aI114
aI111
aI117
aI110
aI100
aI32
aI119
aI105
aI116
aI104
aI32
aI105
aI116
aI46
aI32
aI32
aI73
aI115
aI32
aI116
aI104
aI97
aI116
aI32
aI101
aI118
aI101
aI110
aI32
aI112
aI111
aI115
aI115
aI105
aI98
aI108
aI101
aI63
aI32
aI32
aI84
aI104
aI101
aI121
aI32
aI115
aI97
aI121
aI32
aI116
aI104
aI97
aI116
aI32
aI105
aI102
aI32
aI116
aI104
aI101
aI121
aI32
aI119
aI97
aI108
aI107
aI32
aI116
aI104
aI114
aI111
aI117
aI103
aI104
aI32
aI99
aI101
aI114
aI116
aI97
aI105
aI110
aI32
aI114
aI111
aI111
aI109
aI115
aI32
aI114
aI101
aI112
aI101
aI97
aI116
aI101
aI100
aI108
aI121
aI44
aI32
aI116
aI104
aI101
aI121
aI32
aI102
aI101
aI101
aI108
aI32
aI105
aI116
aI32
aI103
aI101
aI116
aI116
aI105
aI110
aI103
aI32
aI108
aI105
aI103
aI104
aI116
aI101
aI114
aI32
aI97
aI110
aI100
aI32
aI108
aI105
aI103
aI104
aI116
aI101
aI114
aI44
aI32
aI98
aI117
aI116
aI32
aI105
aI116
aI32
aI101
aI118
aI101
aI110
aI116
aI117
aI97
aI108
aI108
aI121
aI32
aI106
aI117
aI115
aI116
aI32
aI101
aI118
aI97
aI112
aI111
aI114
aI97
aI116
aI101
aI115
aI32
aI97
aI110
aI100
aI32
aI97
aI32
aI110
aI101
aI119
aI32
aI111
aI110
aI101
aI32
aI97
aI112
aI112
aI101
aI97
aI114
aI115
aI32
aI97
aI115
aI32
aI117
aI115
aI117
aI97
aI108
aI46
aI10
aI10
aI68
aI97
aI121
aI32
aI50
aI49
aI58
aI32
aI78
aI111
aI119
aI32
aI73
aI32
aI99
aI97
aI110
aI32
aI102
aI101
aI101
aI108
aI32
aI116
aI104
aI101
aI32
aI111
aI114
aI98
aI32
aI99
aI104
aI97
aI110
aI103
aI105
aI110
aI103
aI32
aI119
aI101
aI105
aI103
aI104
aI116
aI32
aI97
aI115
aI32
aI73
aI32
aI119
aI97
aI108
aI107
aI32
aI97
aI114
aI111
aI117
aI110
aI100
aI46
aI32
aI32
aI73
aI116
aI32
aI100
aI101
aI112
aI101
aI110
aI100
aI115
aI32
aI111
aI110
aI32
aI116
aI104
aI101
aI32
aI97
aI114
aI101
aI97
aI32
aI45
aI32
aI116
aI104
aI101
aI32
aI99
aI104
aI97
aI110
aI103
aI101
aI32
aI105
aI115
aI32
aI118
aI101
aI114
aI121
aI32
aI115
aI117
aI98
aI116
aI108
aI101
aI32
aI105
aI110
aI32
aI115
aI111
aI109
aI101
aI32
aI112
aI108
aI97
aI99
aI101
aI115
aI44
aI32
aI98
aI117
aI116
aI32
aI99
aI101
aI114
aI116
aI97
aI105
aI110
aI108
aI121
aI32
aI109
aI111
aI114
aI101
aI32
aI110
aI111
aI116
aI105
aI99
aI101
aI97
aI98
aI108
aI101
aI32
aI105
aI110
aI32
aI111
aI116
aI104
aI101
aI114
aI115
aI44
aI32
aI101
aI115
aI112
aI101
aI99
aI105
aI97
aI108
aI108
aI121
aI32
aI119
aI104
aI101
aI110
aI32
aI73
aI32
aI119
aI97
aI108
aI107
aI32
aI105
aI110
aI116
aI111
aI32
aI97
aI32
aI114
aI111
aI111
aI109
aI32
aI119
aI105
aI116
aI104
aI32
aI97
aI32
aI108
aI97
aI114
aI103
aI101
aI114
aI32
aI110
aI117
aI109
aI98
aI101
aI114
aI32
aI111
aI114
aI32
aI111
aI117
aI116
aI32
aI111
aI102
aI32
aI97
aI32
aI114
aI111
aI111
aI109
aI32
aI109
aI97
aI114
aI107
aI101
aI100
aI32
aI39
aI42
aI39
aI46
aI32
aI32
aI80
aI101
aI114
aI104
aI97
aI112
aI115
aI32
aI119
aI101
aI32
aI99
aI97
aI110
aI32
aI97
aI99
aI116
aI117
aI97
aI108
aI108
aI121
aI32
aI99
aI111
aI110
aI116
aI114
aI111
aI108
aI32
aI116
aI104
aI101
aI32
aI119
aI101
aI105
aI103
aI104
aI116
aI32
aI111
aI102
aI32
aI116
aI104
aI105
aI115
aI32
aI109
aI121
aI115
aI116
aI101
aI114
aI105
aI111
aI117
aI115
aI32
aI111
aI114
aI98
aI63
aI10
aI10
aI68
aI97
aI121
aI32
aI51
aI52
aI58
aI32
aI79
aI110
aI101
aI32
aI111
aI102
aI32
aI116
aI104
aI101
aI32
aI99
aI114
aI101
aI119
aI109
aI101
aI109
aI98
aI101
aI114
aI115
aI32
aI119
aI97
aI115
aI32
aI119
aI97
aI110
aI100
aI101
aI114
aI105
aI110
aI103
aI32
aI116
aI104
aI101
aI32
aI114
aI111
aI111
aI109
aI115
aI32
aI116
aI111
aI100
aI97
aI121
aI32
aI97
aI110
aI100
aI32
aI99
aI108
aI97
aI105
aI109
aI101
aI100
aI32
aI116
aI104
aI97
aI116
aI32
aI116
aI104
aI101
aI32
aI110
aI117
aI109
aI98
aI101
aI114
aI115
aI32
aI111
aI110
aI32
aI116
aI104
aI101
aI32
aI100
aI111
aI111
aI114
aI32
aI102
aI108
aI97
aI115
aI104
aI101
aI100
aI32
aI119
aI104
aI105
aI116
aI101
aI32
aI97
aI115
aI32
aI104
aI101
aI32
aI97
aI112
aI112
aI114
aI111
aI97
aI99
aI104
aI101
aI100
aI33
aI32
aI32
aI72
aI101
aI32
aI115
aI97
aI105
aI100
aI32
aI116
aI104
aI101
aI32
aI100
aI111
aI111
aI114
aI32
aI115
aI116
aI105
aI108
aI108
aI32
aI100
aI105
aI100
aI110
aI39
aI116
aI32
aI111
aI112
aI101
aI110
aI44
aI32
aI98
aI117
aI116
aI32
aI104
aI101
aI32
aI110
aI111
aI116
aI105
aI99
aI101
aI100
aI32
aI116
aI104
aI97
aI116
aI32
aI116
aI104
aI101
aI32
aI104
aI111
aI117
aI114
aI103
aI108
aI97
aI115
aI115
aI32
aI104
aI97
aI100
aI32
aI114
aI117
aI110
aI32
aI111
aI117
aI116
aI32
aI97
aI110
aI100
aI32
aI102
aI108
aI97
aI115
aI104
aI101
aI100
aI32
aI98
aI108
aI97
aI99
aI107
aI46
aI32
aI32
aI87
aI104
aI101
aI110
aI32
aI119
aI101
aI32
aI119
aI101
aI110
aI116
aI32
aI116
aI111
aI32
aI99
aI104
aI101
aI99
aI107
aI32
aI111
aI110
aI32
aI105
aI116
aI44
aI32
aI105
aI116
aI32
aI119
aI97
aI115
aI32
aI115
aI116
aI105
aI108
aI108
aI32
aI114
aI117
aI110
aI110
aI105
aI110
aI103
aI32
aI108
aI105
aI107
aI101
aI32
aI105
aI116
aI32
aI97
aI108
aI119
aI97
aI121
aI115
aI32
aI100
aI111
aI101
aI115
aI46
aI32
aI32
aI80
aI101
aI114
aI104
aI97
aI112
aI115
aI32
aI104
aI101
aI32
aI105
aI115
aI32
aI103
aI111
aI105
aI110
aI103
aI32
aI109
aI97
aI100
aI63
aI32
aI32
aI73
aI102
aI32
aI110
aI111
aI116
aI44
aI32
aI119
aI104
aI105
aI99
aI104
aI32
aI100
aI111
aI32
aI119
aI101
aI32
aI110
aI101
aI101
aI100
aI32
aI116
aI111
aI32
aI97
aI112
aI112
aI101
aI97
aI115
aI101
aI58
aI32
aI116
aI104
aI101
aI32
aI100
aI111
aI111
aI114
aI32
aI111
aI114
aI32
aI116
aI104
aI101
aI32
aI104
aI111
aI117
aI114
aI103
aI108
aI97
aI115
aI115
aI63
aI32
aI32
aI66
aI111
aI116
aI104
aI63
aI10
aI10
aI68
aI97
aI121
aI32
aI53
aI53
aI58
aI32
aI84
aI104
aI101
aI32
aI102
aI105
aI114
aI101
aI102
aI108
aI105
aI101
aI115
aI32
aI97
aI114
aI101
aI32
aI103
aI101
aI116
aI116
aI105
aI110
aI103
aI32
aI115
aI117
aI115
aI112
aI105
aI99
aI105
aI111
aI117
aI115
aI46
aI32
aI32
aI79
aI110
aI101
aI32
aI111
aI102
aI32
aI116
aI104
aI101
aI109
aI32
aI108
aI111
aI111
aI107
aI101
aI100
aI32
aI97
aI116
aI32
aI109
aI101
aI32
aI102
aI117
aI110
aI110
aI121
aI32
aI116
aI111
aI100
aI97
aI121
aI32
aI97
aI110
aI100
aI32
aI116
aI104
aI101
aI110
aI32
aI102
aI108
aI101
aI119
aI32
aI111
aI102
aI102
aI46
aI32
aI32
aI73
aI32
aI116
aI104
aI105
aI110
aI107
aI32
aI73
aI32
aI115
aI97
aI119
aI32
aI97
aI110
aI111
aI116
aI104
aI101
aI114
aI32
aI111
aI110
aI101
aI32
aI98
aI108
aI105
aI110
aI107
aI105
aI110
aI103
aI32
aI97
aI32
aI108
aI105
aI116
aI116
aI108
aI101
aI32
aI102
aI97
aI115
aI116
aI101
aI114
aI32
aI116
aI104
aI97
aI110
aI32
aI117
aI115
aI117
aI97
aI108
aI46
aI32
aI32
aI79
aI114
aI32
aI119
aI97
aI115
aI32
aI105
aI116
aI32
aI97
aI32
aI108
aI105
aI116
aI116
aI108
aI101
aI32
aI115
aI108
aI111
aI119
aI101
aI114
aI63
aI32
aI32
aI87
aI101
aI32
aI97
aI114
aI101
aI32
aI103
aI101
aI116
aI116
aI105
aI110
aI103
aI32
aI98
aI101
aI116
aI116
aI101
aI114
aI32
aI97
aI116
aI32
aI99
aI111
aI110
aI116
aI114
aI111
aI108
aI108
aI105
aI110
aI103
aI32
aI116
aI104
aI101
aI32
aI119
aI101
aI105
aI103
aI104
aI116
aI32
aI111
aI102
aI32
aI116
aI104
aI101
aI32
aI111
aI114
aI98
aI44
aI32
aI97
aI110
aI100
aI32
aI119
aI101
aI32
aI116
aI104
aI105
aI110
aI107
aI32
aI116
aI104
aI97
aI116
aI39
aI115
aI32
aI119
aI104
aI97
aI116
aI32
aI116
aI104
aI101
aI32
aI110
aI117
aI109
aI98
aI101
aI114
aI115
aI32
aI97
aI114
aI101
aI32
aI97
aI108
aI108
aI32
aI97
aI98
aI111
aI117
aI116
aI46
aI32
aI32
aI84
aI104
aI101
aI32
aI111
aI114
aI98
aI32
aI115
aI116
aI97
aI114
aI116
aI115
aI32
aI97
aI116
aI32
aI116
aI104
aI101
aI32
aI119
aI101
aI105
aI103
aI104
aI116
aI32
aI108
aI97
aI98
aI101
aI108
aI101
aI100
aI32
aI111
aI110
aI32
aI116
aI104
aI101
aI32
aI112
aI101
aI100
aI101
aI115
aI116
aI97
aI108
aI44
aI32
aI97
aI110
aI100
aI32
aI103
aI111
aI101
aI115
aI32
aI100
aI111
aI119
aI110
aI32
aI97
aI115
aI32
aI119
aI101
aI32
aI108
aI101
aI97
aI118
aI101
aI32
aI97
aI32
aI114
aI111
aI111
aI109
aI32
aI109
aI97
aI114
aI107
aI101
aI100
aI32
aI39
aI45
aI39
aI44
aI32
aI117
aI112
aI32
aI97
aI115
aI32
aI119
aI101
aI32
aI108
aI101
aI97
aI118
aI101
aI32
aI97
aI32
aI114
aI111
aI111
aI109
aI32
aI109
aI97
aI114
aI107
aI101
aI100
aI32
aI39
aI43
aI39
aI44
aI32
aI97
aI110
aI100
aI32
aI117
aI112
aI32
aI101
aI118
aI101
aI110
aI32
aI109
aI111
aI114
aI101
aI32
aI97
aI115
aI32
aI119
aI101
aI32
aI108
aI101
aI97
aI118
aI101
aI32
aI97
aI32
aI114
aI111
aI111
aI109
aI32
aI109
aI97
aI114
aI107
aI101
aI100
aI32
aI39
aI42
aI39
aI46
aI32
aI32
aI69
aI110
aI116
aI101
aI114
aI105
aI110
aI103
aI32
aI114
aI111
aI111
aI109
aI115
aI32
aI119
aI105
aI116
aI104
aI32
aI108
aI97
aI114
aI103
aI101
aI114
aI32
aI110
aI117
aI109
aI98
aI101
aI114
aI115
aI32
aI104
aI97
aI115
aI32
aI97
aI32
aI103
aI114
aI101
aI97
aI116
aI101
aI114
aI32
aI101
aI102
aI102
aI101
aI99
aI116
aI46
aI10
aI10
aI68
aI97
aI121
aI32
aI56
aI57
aI58
aI32
aI69
aI118
aI101
aI114
aI121
aI32
aI111
aI110
aI99
aI101
aI32
aI105
aI110
aI32
aI97
aI32
aI103
aI114
aI101
aI97
aI116
aI32
aI119
aI104
aI105
aI108
aI101
aI44
aI32
aI111
aI110
aI101
aI32
aI111
aI102
aI32
aI116
aI104
aI101
aI32
aI99
aI114
aI101
aI119
aI109
aI101
aI109
aI98
aI101
aI114
aI115
aI32
aI104
aI97
aI115
aI32
aI116
aI104
aI101
aI32
aI115
aI97
aI109
aI101
aI32
aI115
aI116
aI111
aI114
aI121
aI58
aI32
aI116
aI104
aI97
aI116
aI32
aI116
aI104
aI101
aI32
aI100
aI111
aI111
aI114
aI32
aI102
aI108
aI97
aI115
aI104
aI101
aI115
aI32
aI119
aI104
aI105
aI116
aI101
aI44
aI32
aI116
aI104
aI101
aI32
aI104
aI111
aI117
aI114
aI103
aI108
aI97
aI115
aI115
aI32
aI104
aI97
aI100
aI32
aI97
aI108
aI114
aI101
aI97
aI100
aI121
aI32
aI114
aI117
aI110
aI32
aI111
aI117
aI116
aI44
aI32
aI105
aI116
aI32
aI102
aI108
aI97
aI115
aI104
aI101
aI115
aI32
aI98
aI108
aI97
aI99
aI107
aI44
aI32
aI97
aI110
aI100
aI32
aI116
aI104
aI101
aI32
aI111
aI114
aI98
aI32
aI101
aI118
aI97
aI112
aI111
aI114
aI97
aI116
aI101
aI115
aI46
aI32
aI32
aI65
aI114
aI101
aI32
aI119
aI101
aI32
aI116
aI111
aI111
aI32
aI115
aI108
aI111
aI119
aI63
aI32
aI32
aI87
aI101
aI32
aI99
aI97
aI110
aI39
aI116
aI32
aI115
aI101
aI101
aI109
aI32
aI116
aI111
aI32
aI102
aI105
aI110
aI100
aI32
aI97
aI32
aI119
aI97
aI121
aI32
aI116
aI111
aI32
aI109
aI97
aI107
aI101
aI32
aI116
aI104
aI101
aI32
aI111
aI114
aI98
aI39
aI115
aI32
aI119
aI101
aI105
aI103
aI104
aI116
aI32
aI109
aI97
aI116
aI99
aI104
aI32
aI119
aI104
aI97
aI116
aI32
aI116
aI104
aI101
aI32
aI100
aI111
aI111
aI114
aI32
aI119
aI97
aI110
aI116
aI115
aI32
aI98
aI101
aI102
aI111
aI114
aI101
aI32
aI116
aI104
aI101
aI32
aI104
aI111
aI117
aI114
aI103
aI108
aI97
aI115
aI115
aI32
aI114
aI117
aI110
aI115
aI32
aI111
aI117
aI116
aI46
aI32
aI32
aI73
aI102
aI32
aI111
aI110
aI108
aI121
aI32
aI119
aI101
aI32
aI99
aI111
aI117
aI108
aI100
aI32
aI102
aI105
aI110
aI100
aI32
aI97
aI32
aI115
aI104
aI111
aI114
aI116
aI101
aI114
aI32
aI114
aI111
aI117
aI116
aI101
aI32
aI116
aI104
aI114
aI111
aI117
aI103
aI104
aI32
aI116
aI104
aI101
aI32
aI114
aI111
aI111
aI109
aI115
aI46
aI46
aI46
aI10
aI10
aI68
aI97
aI121
aI32
aI49
aI52
aI52
aI58
aI32
aI87
aI101
aI32
aI97
aI114
aI101
aI32
aI97
aI98
aI97
aI110
aI100
aI111
aI110
aI105
aI110
aI103
aI32
aI116
aI104
aI101
aI32
aI109
aI105
aI115
aI115
aI105
aI111
aI110
aI46
aI32
aI32
aI78
aI111
aI110
aI101
aI32
aI111
aI102
aI32
aI117
aI115
aI32
aI99
aI97
aI110
aI32
aI119
aI111
aI114
aI107
aI32
aI111
aI117
aI116
aI32
aI116
aI104
aI101
aI32
aI115
aI111
aI108
aI117
aI116
aI105
aI111
aI110
aI32
aI116
aI111
aI32
aI116
aI104
aI101
aI32
aI112
aI117
aI122
aI122
aI108
aI101
aI46
aI32
aI32
aI73
aI32
aI119
aI105
aI108
aI108
aI32
aI108
aI101
aI97
aI118
aI101
aI32
aI116
aI104
aI105
aI115
aI32
aI106
aI111
aI117
aI114
aI110
aI97
aI108
aI32
aI104
aI101
aI114
aI101
aI32
aI116
aI111
aI32
aI104
aI101
aI108
aI112
aI32
aI102
aI117
aI116
aI117
aI114
aI101
aI32
aI97
aI100
aI118
aI101
aI110
aI116
aI117
aI114
aI101
aI114
aI115
aI44
aI32
aI116
aI104
aI111
aI117
aI103
aI104
aI32
aI73
aI32
aI97
aI109
aI32
aI110
aI111
aI116
aI32
aI115
aI117
aI114
aI101
aI32
aI119
aI104
aI97
aI116
aI32
aI104
aI101
aI108
aI112
aI32
aI105
aI116
aI32
aI119
aI105
aI108
aI108
aI32
aI103
aI105
aI118
aI101
aI46
aI32
aI32
aI71
aI111
aI111
aI100
aI32
aI108
aI117
aI99
aI107
aI33
aI52
aI97
aI98
aI99
aI100
aI101
aI102
aI103
aI104
aI105
aI106
aI107
aI108
aI109
aI110
aI111
aI112
aI113
aI114
aI115
aI116
aI117
aI118
aI119
aI120
aI121
aI122
aI65
aI66
aI67
aI68
aI69
aI70
aI71
aI72
aI73
aI74
aI75
aI76
aI77
aI78
aI79
aI80
aI81
aI82
aI83
aI84
aI85
aI86
aI87
aI88
aI89
aI90
aI23
aI100
aI98
aI113
aI112
aI119
aI117
aI105
aI111
aI108
aI120
aI118
aI56
aI87
aI84
aI89
aI85
aI73
aI79
aI65
aI72
aI88
aI86
aI77
aI2
aI103
aI111
aI4
aI108
aI111
aI111
aI107
aI4
aI104
aI101
aI108
aI112
aI3
aI105
aI110
aI118
aI4
aI116
aI97
aI107
aI101
aI4
aI100
aI114
aI111
aI112
aI3
aI117
aI115
aI101
aI15
aI116
aI97
aI107
aI101
aI10
aI116
aI101
aI108
aI101
aI112
aI111
aI114
aI116
aI101
aI114
aI105
aI110
aI110
aI0
aI0
aI0
aI0
aI0
aI0
aI0
aI0
aI0
aI0
aI0
aI0
aI0
aI0
aI5
aI103
aI114
aI101
aI101
aI110
aI3
aI114
aI101
aI100
aI6
aI121
aI101
aI108
aI108
aI111
aI119
aI63
aI65
aI115
aI32
aI121
aI111
aI117
aI32
aI101
aI110
aI116
aI101
aI114
aI32
aI116
aI104
aI101
aI32
aI114
aI111
aI111
aI109
aI44
aI32
aI116
aI104
aI101
aI32
aI115
aI121
aI109
aI98
aI111
aI108
aI32
aI111
aI110
aI32
aI116
aI104
aI101
aI32
aI102
aI108
aI111
aI111
aI114
aI32
aI98
aI114
aI105
aI101
aI102
aI108
aI121
aI32
aI102
aI108
aI97
aI115
aI104
aI101
aI115
aI32
aI33
aI46
aI32
aI32
aI84
aI104
aI101
aI32
aI111
aI114
aI98
aI32
aI98
aI101
aI103
aI105
aI110
aI115
aI32
aI115
aI117
aI98
aI116
aI108
aI121
aI32
aI103
aI108
aI111
aI119
aI105
aI110
aI103
aI32
aI47
aI65
aI115
aI32
aI121
aI111
aI117
aI32
aI101
aI110
aI116
aI101
aI114
aI32
aI116
aI104
aI101
aI32
aI114
aI111
aI111
aI109
aI44
aI32
aI116
aI104
aI101
aI32
aI111
aI114
aI98
aI32
aI98
aI114
aI105
aI101
aI102
aI108
aI121
aI32
aI102
aI108
aI97
aI115
aI104
aI101
aI115
aI32
aI64
aI46
aI32
aI32
aI84
aI104
aI101
aI32
aI110
aI117
aI109
aI98
aI101
aI114
aI32
aI111
aI110
aI32
aI116
aI104
aI101
aI32
aI102
aI108
aI111
aI111
aI114
aI32
aI118
aI105
aI98
aI114
aI97
aI116
aI101
aI115
aI32
aI115
aI116
aI114
aI97
aI110
aI103
aI101
aI108
aI121
aI32
aI98
aI101
aI110
aI101
aI97
aI116
aI104
aI32
aI121
aI111
aI117
aI114
aI32
aI102
aI101
aI101
aI116
aI46
aI31
aI32
aI32
aI84
aI104
aI101
aI32
aI111
aI114
aI98
aI32
aI115
aI101
aI101
aI109
aI115
aI32
aI116
aI111
aI32
aI103
aI101
aI116
aI32
aI104
aI101
aI97
aI118
aI105
aI101
aI114
aI46
aI31
aI32
aI32
aI84
aI104
aI101
aI32
aI111
aI114
aI98
aI32
aI115
aI101
aI101
aI109
aI115
aI32
aI116
aI111
aI32
aI103
aI101
aI116
aI32
aI108
aI105
aI103
aI104
aI116
aI101
aI114
aI46
aI21
aI32
aI32
aI84
aI104
aI101
aI32
aI111
aI114
aI98
aI32
aI115
aI104
aI97
aI116
aI116
aI101
aI114
aI115
aI33
aI10
aI10
aI32
aI65
aI115
aI32
aI121
aI111
aI117
aI32
aI97
aI112
aI112
aI114
aI111
aI97
aI99
aI104
aI32
aI116
aI104
aI101
aI32
aI118
aI97
aI117
aI108
aI116
aI32
aI100
aI111
aI111
aI114
aI44
aI32
aI43
aI116
aI104
aI101
aI32
aI110
aI117
aI109
aI98
aI101
aI114
aI32
aI111
aI110
aI32
aI116
aI104
aI101
aI32
aI118
aI97
aI117
aI108
aI116
aI32
aI100
aI111
aI111
aI114
aI32
aI102
aI108
aI97
aI115
aI104
aI101
aI115
aI32
aI98
aI108
aI97
aI99
aI107
aI46
aI41
aI32
aI32
aI84
aI104
aI101
aI32
aI111
aI114
aI98
aI32
aI101
aI118
aI97
aI112
aI111
aI114
aI97
aI116
aI101
aI115
aI32
aI111
aI117
aI116
aI32
aI111
aI102
aI32
aI121
aI111
aI117
aI114
aI32
aI104
aI97
aI110
aI100
aI115
aI46
aI10
aI10
aI43
aI116
aI104
aI101
aI32
aI110
aI117
aI109
aI98
aI101
aI114
aI32
aI111
aI110
aI32
aI116
aI104
aI101
aI32
aI118
aI97
aI117
aI108
aI116
aI32
aI100
aI111
aI111
aI114
aI32
aI102
aI108
aI97
aI115
aI104
aI101
aI115
aI32
aI119
aI104
aI105
aI116
aI101
aI33
aI99
aI32
aI32
aI84
aI104
aI101
aI32
aI104
aI111
aI117
aI114
aI103
aI108
aI97
aI115
aI115
aI32
aI104
aI97
aI115
aI32
aI97
aI108
aI114
aI101
aI97
aI100
aI121
aI32
aI114
aI117
aI110
aI32
aI111
aI117
aI116
aI46
aI32
aI32
aI73
aI116
aI32
aI102
aI108
aI97
aI115
aI104
aI101
aI115
aI32
aI98
aI108
aI97
aI99
aI107
aI32
aI97
aI110
aI100
aI32
aI102
aI108
aI105
aI112
aI115
aI32
aI111
aI118
aI101
aI114
aI44
aI32
aI114
aI101
aI115
aI116
aI97
aI114
aI116
aI105
aI110
aI103
aI32
aI116
aI104
aI101
aI32
aI102
aI108
aI111
aI119
aI32
aI111
aI102
aI32
aI115
aI97
aI110
aI100
aI46
aI132
aI32
aI32
aI84
aI104
aI101
aI32
aI104
aI111
aI117
aI114
aI103
aI108
aI97
aI115
aI115
aI32
aI105
aI115
aI32
aI115
aI116
aI105
aI108
aI108
aI32
aI114
aI117
aI110
aI110
aI105
aI110
aI103
aI33
aI32
aI32
aI73
aI116
aI32
aI102
aI108
aI97
aI115
aI104
aI101
aI115
aI32
aI119
aI104
aI105
aI116
aI101
aI33
aI32
aI32
aI89
aI111
aI117
aI32
aI104
aI101
aI97
aI114
aI32
aI97
aI32
aI99
aI108
aI105
aI99
aI107
aI32
aI102
aI114
aI111
aI109
aI32
aI116
aI104
aI101
aI32
aI118
aI97
aI117
aI108
aI116
aI32
aI100
aI111
aI111
aI114
aI46
aI32
aI32
aI84
aI104
aI101
aI32
aI111
aI114
aI98
aI32
aI101
aI118
aI97
aI112
aI111
aI114
aI97
aI116
aI101
aI115
aI32
aI111
aI117
aI116
aI32
aI111
aI102
aI32
aI104
aI111
aI117
aI114
aI32
aI104
aI97
aI110
aI100
aI115
aI46
aI10
aI10
aI7
aI65
aI115
aI32
aI121
aI111
aI117
aI32
aI5
aI108
aI101
aI97
aI118
aI101
aI5
aI101
aI110
aI116
aI101
aI114
aI86
aI32
aI116
aI104
aI101
aI32
aI114
aI111
aI111
aI109
aI44
aI32
aI116
aI104
aI101
aI32
aI111
aI114
aI98
aI32
aI101
aI118
aI97
aI112
aI111
aI114
aI97
aI116
aI101
aI115
aI32
aI111
aI117
aI116
aI32
aI111
aI102
aI32
aI121
aI111
aI117
aI114
aI32
aI104
aI97
aI110
aI100
aI115
aI33
aI32
aI32
aI73
aI116
aI32
aI114
aI101
aI109
aI97
aI116
aI101
aI114
aI105
aI97
aI108
aI105
aI122
aI101
aI115
aI32
aI111
aI110
aI32
aI105
aI116
aI115
aI32
aI112
aI101
aI100
aI101
aI115
aI116
aI97
aI108
aI46
aI10
aI10
aI26
aI84
aI104
aI101
aI32
aI118
aI97
aI117
aI108
aI116
aI32
aI100
aI111
aI111
aI114
aI32
aI105
aI115
aI32
aI115
aI101
aI97
aI108
aI101
aI100
aI46
aI10
aI48
aI21154
aI21150
aI21139
aI21206
aI21125
aI21139
aI21146
aI21136
aI21211
aI21122
aI21139
aI21125
aI21122
aI21206
aI21141
aI21145
aI21147
aI21126
aI21146
aI21139
aI21122
aI21151
aI21145
aI21144
aI21206
aI21141
aI21145
aI21138
aI21139
aI21206
aI21151
aI21125
aI21196
aI21206
aI21132
aI21121
aI21124
aI21183
aI21122
aI21155
aI21150
aI21173
aI21168
aI21157
aI21154
aI21173
aI21244
aI21244
aI2
aI6336
aI6344
aI2
aI2327
aI2322
aI1
aI6435
aI1
aI2317
aI2
aI6585
aI6591
aI2
aI2332
aI2317
aI2
aI6699
aI6705
aI2
aI2337
aI2327
aI2
aI6909
aI6916
aI2
aI2342
aI2327
aI2
aI7056
aI7065
aI2
aI2347
aI2337
aI1
aI7265
aI1
aI2352
aI2
aI7492
aI7497
aI2
aI2362
aI2357
aI1
aI7611
aI1
aI2352
aI2
aI7786
aI7791
aI2
aI2352
aI2367
aI3
aI7984
aI7991
aI7998
aI3
aI2362
aI2377
aI2372
aI2
aI8015
aI8073
aI2
aI8149
aI8158
aI2
aI2427
aI2367
aI5
aI8303
aI8310
aI8316
aI8322
aI8327
aI5
aI2367
aI2382
aI2387
aI2392
aI2397
aI3
aI8404
aI8410
aI8416
aI3
aI2387
aI2377
aI2382
aI3
aI8493
aI8499
aI8505
aI3
aI2377
aI2382
aI2387
aI4
aI8651
aI8657
aI8663
aI8668
aI4
aI2407
aI2392
aI2377
aI2422
aI3
aI8745
aI8751
aI8757
aI3
aI2397
aI2402
aI2377
aI4
aI8910
aI8916
aI8922
aI8927
aI4
aI2412
aI2382
aI2387
aI2422
aI3
aI9004
aI9010
aI9015
aI3
aI2387
aI2382
aI2407
aI1
aI9093
aI1
aI2377
aI1
aI9170
aI1
aI2377
aI2
aI9247
aI9253
aI2
aI2387
aI2382
aI2
aI9387
aI9392
aI2
aI2432
aI2372
aI2
aI9445
aI9450
aI2
aI2427
aI2437
aI2
aI9503
aI9508
aI2
aI2432
aI2442
aI2
aI9627
aI9632
aI2
aI2437
aI2447
aI2
aI9892
aI9897
aI2
aI2442
aI2452
aI2
aI10091
aI10097
aI2
aI2457
aI2447
aI4
aI10403
aI10409
aI10415
aI10420
aI4
aI2463
aI2452
aI2468
aI2478
aI5
aI267
aI271
aI275
aI281
aI287
aI5
aI9
aI2
aI5
aI7
aI3
aI1
aI10599
aI1
aI2457
aI2
aI10750
aI10755
aI2
aI2473
aI2457
aI1
aI10889
aI1
aI2468
aI2
aI11078
aI11081
aI2
aI2483
aI2457
aI1
aI11262
aI1
aI2478
aI1
aI11544
aI1
aI2493
aI1
aI11719
aI1
aI2488
aI3
aI11903
aI11908
aI11913
aI3
aI2503
aI2508
aI2513
aI2
aI12188
aI12193
aI2
aI2498
aI2513
aI2
aI12448
aI12453
aI2
aI2498
aI2518
aI3
aI12674
aI12680
aI12686
aI3
aI2523
aI2498
aI2518
aI3
aI12830
aI12836
aI12842
aI3
aI2523
aI2508
aI2513
aI2
aI13094
aI13100
aI2
aI2528
aI2513
aI2
aI13408
aI13414
aI2
aI2533
aI2523
aI2
aI13682
aI13688
aI2
aI2538
aI2528
aI2
aI13929
aI13935
aI2
aI2543
aI2533
aI2
aI14078
aI14084
aI2
aI2548
aI2538
aI3
aI14427
aI14433
aI14439
aI3
aI2558
aI2543
aI2553
aI1
aI14629
aI1
aI2548
aI2
aI14753
aI14759
aI2
aI2623
aI2548
aI2
aI14905
aI14910
aI2
aI2568
aI2583
aI3
aI15058
aI15063
aI15069
aI3
aI2573
aI2588
aI2563
aI3
aI15214
aI15219
aI15225
aI3
aI2578
aI2593
aI2568
aI3
aI15488
aI15494
aI15499
aI3
aI2598
aI2573
aI2643
aI3
aI15647
aI15653
aI15658
aI3
aI2563
aI2588
aI2603
aI4
aI15804
aI15810
aI15815
aI15821
aI4
aI2568
aI2593
aI2608
aI2583
aI4
aI15969
aI15975
aI15980
aI15986
aI4
aI2573
aI2598
aI2613
aI2588
aI3
aI16131
aI16137
aI16143
aI3
aI2578
aI2618
aI2593
aI3
aI16288
aI16294
aI16299
aI3
aI2583
aI2608
aI2623
aI4
aI16447
aI16453
aI16458
aI16464
aI4
aI2588
aI2613
aI2628
aI2603
aI4
aI16609
aI16615
aI16620
aI16626
aI4
aI2593
aI2618
aI2633
aI2608
aI3
aI16774
aI16780
aI16786
aI3
aI2598
aI2638
aI2613
aI3
aI16954
aI16960
aI16965
aI3
aI2603
aI2628
aI2558
aI3
aI17111
aI17117
aI17122
aI3
aI2608
aI2633
aI2623
aI3
aI17269
aI17275
aI17280
aI3
aI2613
aI2638
aI2628
aI2
aI17425
aI17431
aI2
aI2618
aI2633
aI1
aI17655
aI1
aI2578
aI2
aI17793
aI17801
aI2
aI2653
aI2653
aI2
aI17933
aI17937
aI2
aI2658
aI2658
aI3
aI18041
aI18045
aI18050
aI3
aI2663
aI2663
aI2663
aI0
aI0
aI16
aI2668
aI2672
aI2676
aI2680
aI2684
aI2688
aI2692
aI2696
aI2700
aI2704
aI2708
aI2712
aI2724
aI2728
aI2716
aI2720
aI7
aI25943
aI25946
aI25951
aI25956
aI25960
aI25965
aI25970
aI7
aI3245
aI2964
aI3333
aI3362
aI3400
aI3488
aI3568
aI17
aI24943
aI24882
aI24845
aI24836
aI24849
aI24901
aI24833
aI24842
aI24901
aI24860
aI24842
aI24848
aI24901
aI24833
aI24842
aI24922
aI24943
aI22
aI31398
aI31376
aI31370
aI31455
aI31372
aI31386
aI31386
aI31455
aI31377
aI31376
aI31455
aI31372
aI31370
aI31388
aI31383
aI31455
aI31382
aI31371
aI31386
aI31378
aI31441
aI31477
aI26
aI30437
aI30395
aI30343
aI30342
aI30337
aI30344
aI30364
aI30415
aI30336
aI30345
aI30415
aI30342
aI30337
aI30363
aI30346
aI30365
aI30346
aI30364
aI30363
aI30415
aI30343
aI30346
aI30365
aI30346
aI30421
aI30437
aI49
aI5170
aI5211
aI5151
aI5140
aI5141
aI5212
aI5135
aI5211
aI5134
aI5141
aI5151
aI5150
aI5129
aI5128
aI5135
aI5146
aI5141
aI5151
aI5184
aI5211
aI5135
aI5129
aI5122
aI5211
aI5212
aI5139
aI5150
aI5143
aI5131
aI5212
aI5211
aI5149
aI5140
aI5129
aI5211
aI5138
aI5141
aI5128
aI5135
aI5129
aI5134
aI5144
aI5135
aI5138
aI5140
aI5141
aI5128
aI5205
aI5233
aI504
aI28571
aI28568
aI28568
aI28572
aI28669
aI28631
aI28631
aI28590
aI28568
aI28546
aI28631
aI28570
aI28566
aI28558
aI28631
aI28570
aI28562
aI28549
aI28562
aI28571
aI28558
aI28631
aI28624
aI28571
aI28568
aI28568
aI28572
aI28624
aI28631
aI28547
aI28568
aI28631
aI28562
aI28559
aI28566
aI28570
aI28574
aI28569
aI28562
aI28631
aI28547
aI28575
aI28562
aI28631
aI28549
aI28568
aI28568
aI28570
aI28635
aI28631
aI28568
aI28549
aI28631
aI28558
aI28568
aI28546
aI28631
aI28570
aI28566
aI28558
aI28631
aI28624
aI28571
aI28568
aI28568
aI28572
aI28631
aI28619
aI28548
aI28546
aI28565
aI28573
aI28562
aI28564
aI28547
aI28617
aI28624
aI28631
aI28639
aI28548
aI28546
aI28564
aI28575
aI28631
aI28566
aI28548
aI28631
aI28624
aI28571
aI28568
aI28568
aI28572
aI28631
aI28564
aI28575
aI28566
aI28574
aI28549
aI28624
aI28638
aI28631
aI28547
aI28568
aI28631
aI28562
aI28559
aI28566
aI28570
aI28574
aI28569
aI28562
aI28631
aI28548
aI28568
aI28570
aI28562
aI28547
aI28575
aI28574
aI28569
aI28560
aI28631
aI28548
aI28551
aI28562
aI28564
aI28574
aI28561
aI28574
aI28564
aI28633
aI28669
aI28560
aI28568
aI28669
aI28631
aI28631
aI28590
aI28568
aI28546
aI28631
aI28570
aI28566
aI28558
aI28631
aI28624
aI28560
aI28568
aI28631
aI28619
aI28562
aI28559
aI28574
aI28547
aI28617
aI28624
aI28631
aI28547
aI28568
aI28631
aI28547
aI28549
aI28566
aI28545
aI28562
aI28571
aI28631
aI28574
aI28569
aI28631
aI28547
aI28575
aI28566
aI28547
aI28631
aI28563
aI28574
aI28549
aI28562
aI28564
aI28547
aI28574
aI28568
aI28569
aI28631
aI28639
aI28548
aI28546
aI28564
aI28575
aI28631
aI28566
aI28548
aI28631
aI28624
aI28560
aI28568
aI28631
aI28544
aI28562
aI28548
aI28547
aI28624
aI28638
aI28635
aI28631
aI28568
aI28549
aI28631
aI28558
aI28568
aI28546
aI28631
aI28570
aI28566
aI28558
aI28631
aI28570
aI28562
aI28549
aI28562
aI28571
aI28558
aI28631
aI28624
aI28619
aI28562
aI28559
aI28574
aI28547
aI28617
aI28624
aI28631
aI28639
aI28548
aI28546
aI28564
aI28575
aI28631
aI28566
aI28548
aI28631
aI28624
aI28544
aI28562
aI28548
aI28547
aI28624
aI28638
aI28633
aI28669
aI28574
aI28569
aI28545
aI28669
aI28631
aI28631
aI28579
aI28568
aI28631
aI28548
aI28562
aI28562
aI28631
aI28547
aI28575
aI28562
aI28631
aI28564
aI28568
aI28569
aI28547
aI28562
aI28569
aI28547
aI28548
aI28631
aI28568
aI28561
aI28631
aI28558
aI28568
aI28546
aI28549
aI28631
aI28574
aI28569
aI28545
aI28562
aI28569
aI28547
aI28568
aI28549
aI28558
aI28635
aI28631
aI28570
aI28562
aI28549
aI28562
aI28571
aI28558
aI28631
aI28624
aI28574
aI28569
aI28545
aI28624
aI28633
aI28669
aI28547
aI28566
aI28572
aI28562
aI28669
aI28631
aI28631
aI28590
aI28568
aI28546
aI28631
aI28570
aI28566
aI28558
aI28631
aI28624
aI28547
aI28566
aI28572
aI28562
aI28631
aI28619
aI28574
aI28547
aI28562
aI28570
aI28617
aI28624
aI28631
aI28639
aI28548
aI28546
aI28564
aI28575
aI28631
aI28566
aI28548
aI28631
aI28624
aI28547
aI28566
aI28572
aI28562
aI28631
aI28571
aI28566
aI28549
aI28560
aI28562
aI28631
aI28549
aI28568
aI28564
aI28572
aI28624
aI28638
aI28633
aI28669
aI28563
aI28549
aI28568
aI28551
aI28669
aI28631
aI28631
aI28579
aI28568
aI28631
aI28563
aI28549
aI28568
aI28551
aI28631
aI28548
aI28568
aI28570
aI28562
aI28547
aI28575
aI28574
aI28569
aI28560
aI28631
aI28574
aI28569
aI28631
aI28558
aI28568
aI28546
aI28549
aI28631
aI28574
aI28569
aI28545
aI28562
aI28569
aI28547
aI28568
aI28549
aI28558
aI28635
aI28631
aI28558
aI28568
aI28546
aI28631
aI28570
aI28566
aI28558
aI28631
aI28624
aI28563
aI28549
aI28568
aI28551
aI28631
aI28619
aI28574
aI28547
aI28562
aI28570
aI28617
aI28624
aI28633
aI28669
aI28546
aI28548
aI28562
aI28669
aI28631
aI28631
aI28590
aI28568
aI28546
aI28631
aI28570
aI28566
aI28558
aI28631
aI28566
aI28564
aI28547
aI28574
aI28545
aI28566
aI28547
aI28562
aI28631
aI28568
aI28549
aI28631
aI28568
aI28547
aI28575
aI28562
aI28549
aI28544
aI28574
aI28548
aI28562
aI28631
aI28566
aI28551
aI28551
aI28571
aI28558
aI28631
aI28566
aI28569
aI28631
aI28574
aI28547
aI28562
aI28570
aI28631
aI28544
aI28574
aI28547
aI28575
aI28631
aI28624
aI28546
aI28548
aI28562
aI28631
aI28619
aI28574
aI28547
aI28562
aI28570
aI28617
aI28624
aI28633
aI28669
aI16
aI17443
aI17429
aI17423
aI17416
aI17498
aI17427
aI17428
aI17420
aI17439
aI17428
aI17422
aI17429
aI17416
aI17411
aI17472
aI17520
aI7
aI1198
aI1179
aI1169
aI1183
aI1172
aI1236
aI1264
aI27
aI9257
aI9247
aI9221
aI9296
aI9219
aI9237
aI9237
aI9296
aI9246
aI9247
aI9296
aI9219
aI9221
aI9235
aI9240
aI9296
aI9241
aI9220
aI9237
aI9245
aI9296
aI9240
aI9237
aI9218
aI9237
aI9310
aI9338
aI9
aI12088
aI12046
aI12051
aI12044
aI12044
aI12057
aI12056
aI12114
aI12150
aI34
aI20643
aI20629
aI20623
aI20698
aI20633
aI20635
aI20628
aI20701
aI20622
aI20698
aI20636
aI20627
aI20628
aI20638
aI20698
aI20622
aI20626
aI20635
aI20622
aI20698
aI20627
aI20628
aI20698
aI20611
aI20629
aI20623
aI20616
aI20698
aI20618
aI20635
aI20633
aI20625
aI20692
aI20720
aI34
aI28069
aI28051
aI28041
aI28124
aI28063
aI28061
aI28050
aI28123
aI28040
aI28124
aI28058
aI28053
aI28050
aI28056
aI28124
aI28040
aI28052
aI28061
aI28040
aI28124
aI28053
aI28050
aI28124
aI28037
aI28051
aI28041
aI28046
aI28124
aI28044
aI28061
aI28063
aI28055
aI28114
aI28150
aI33
aI935
aI913
aI907
aI990
aI927
aI908
aI923
aI912
aI985
aI906
aI990
aI909
aI907
aI908
aI923
aI990
aI918
aI913
aI905
aI990
aI906
aI913
aI990
aI907
aI909
aI923
aI990
aI906
aI918
aI927
aI906
aI976
aI1012
aI31
aI18350
aI18328
aI18306
aI18391
aI18335
aI18326
aI18305
aI18322
aI18391
aI18325
aI18322
aI18322
aI18329
aI18391
aI18322
aI18326
aI18307
aI18322
aI18329
aI18391
aI18325
aI18318
aI18391
aI18326
aI18391
aI18320
aI18309
aI18306
aI18322
aI18393
aI18429
aI62
aI11170
aI11145
aI11144
aI11154
aI11140
aI11149
aI11140
aI11141
aI11201
aI11150
aI11151
aI11201
aI11157
aI11145
aI11140
aI11201
aI11158
aI11136
aI11149
aI11149
aI11201
aI11150
aI11143
aI11201
aI11150
aI11151
aI11140
aI11201
aI11150
aI11143
aI11201
aI11157
aI11145
aI11140
aI11201
aI11153
aI11136
aI11154
aI11154
aI11136
aI11142
aI11140
aI11158
aI11136
aI11160
aI11154
aI11213
aI11201
aI11160
aI11150
aI11156
aI11201
aI11154
aI11140
aI11140
aI11227
aI11243
aI11243
aI11201
aI11201
aI11201
aI11201
aI3
aI3510
aI14070
aI24081
aI43
aI30563
aI30563
aI30512
aI30470
aI30492
aI30537
aI30493
aI30472
aI30466
aI30476
aI30537
aI30471
aI30470
aI30493
aI30476
aI30537
aI30470
aI30479
aI30537
aI30493
aI30465
aI30464
aI30490
aI30537
aI30472
aI30471
aI30477
aI30537
aI30466
aI30476
aI30476
aI30489
aI30537
aI30494
aI30472
aI30469
aI30466
aI30464
aI30471
aI30478
aI30535
aI30563
aI30563
aI21
aI30242
aI30238
aI30231
aI30210
aI30294
aI30226
aI30233
aI30233
aI30212
aI30294
aI30239
aI30213
aI30294
aI30234
aI30233
aI30229
aI30237
aI30227
aI30226
aI30296
aI30332
aI27
aI23717
aI23699
aI23689
aI23772
aI23706
aI23701
aI23698
aI23704
aI23772
aI23685
aI23699
aI23689
aI23694
aI23695
aI23705
aI23696
aI23706
aI23772
aI23691
aI23694
aI23701
aI23688
aI23701
aI23698
aI23707
aI23772
aI23774
aI3
aI28970
aI18860
aI21112
aI51
aI28765
aI28767
aI28688
aI28689
aI28767
aI28683
aI28695
aI28698
aI28767
aI28683
aI28702
aI28701
aI28691
aI28698
aI28683
aI28753
aI28767
aI28767
aI28719
aI28698
aI28685
aI28695
aI28702
aI28687
aI28684
aI28767
aI28694
aI28683
aI28760
aI28684
aI28767
aI28684
aI28688
aI28690
aI28698
aI28767
aI28692
aI28694
aI28689
aI28699
aI28767
aI28688
aI28697
aI28767
aI28700
aI28688
aI28699
aI28698
aI28736
aI28789
aI28789
aI56
aI4528
aI4486
aI4508
aI4553
aI4495
aI4480
aI4485
aI4485
aI4553
aI4496
aI4486
aI4508
aI4507
aI4553
aI4485
aI4488
aI4487
aI4509
aI4492
aI4507
aI4487
aI4553
aI4510
aI4480
aI4509
aI4481
aI4553
aI4486
aI4480
aI4485
aI4551
aI4553
aI4553
aI4512
aI4509
aI4553
aI4506
aI4492
aI4492
aI4484
aI4506
aI4553
aI4509
aI4486
aI4553
aI4490
aI4481
aI4492
aI4492
aI4507
aI4553
aI4508
aI4505
aI4552
aI4579
aI4579
aI58
aI18352
aI18310
aI18332
aI18382
aI18309
aI18309
aI18377
aI18305
aI18312
aI18335
aI18316
aI18377
aI18333
aI18310
aI18377
aI18319
aI18304
aI18311
aI18317
aI18377
aI18330
aI18310
aI18308
aI18316
aI18333
aI18305
aI18304
aI18311
aI18318
aI18377
aI18333
aI18310
aI18377
aI18329
aI18332
aI18333
aI18377
aI18333
aI18305
aI18316
aI18377
aI18310
aI18304
aI18309
aI18377
aI18304
aI18311
aI18333
aI18310
aI18377
aI18319
aI18304
aI18331
aI18330
aI18333
aI18375
aI18403
aI18403
aI25
aI5925
aI5907
aI5897
aI5980
aI5904
aI5909
aI5915
aI5908
aI5896
aI5980
aI5893
aI5907
aI5897
aI5902
aI5980
aI5904
aI5917
aI5906
aI5896
aI5913
aI5902
aI5906
aI5970
aI6006
aI6006
aI25
aI12068
aI12050
aI12040
aI12125
aI12057
aI12050
aI12040
aI12046
aI12056
aI12125
aI12036
aI12050
aI12040
aI12047
aI12125
aI12049
aI12060
aI12051
aI12041
aI12056
aI12047
aI12051
aI12115
aI12151
aI12151
aI42
aI4410
aI4364
aI4374
aI4420
aI4369
aI4358
aI4419
aI4365
aI4364
aI4375
aI4419
aI4368
aI4374
aI4369
aI4358
aI4419
aI4372
aI4363
aI4354
aI4375
aI4419
aI4375
aI4364
aI4419
aI4359
aI4364
aI4419
aI4372
aI4362
aI4375
aI4363
aI4419
aI4375
aI4363
aI4358
aI4419
aI4352
aI4364
aI4362
aI4365
aI4429
aI4457
aI14
aI8617
aI8607
aI8581
aI8656
aI8576
aI8604
aI8593
aI8595
aI8597
aI8656
aI8580
aI8600
aI8597
aI8656
aI30
aI4435
aI4378
aI4381
aI4359
aI4380
aI4435
aI4359
aI4379
aI4374
aI4435
aI4383
aI4374
aI4373
aI4359
aI4382
aI4380
aI4352
aI4359
aI4435
aI4380
aI4355
aI4374
aI4381
aI4435
aI4352
aI4383
aI4380
aI4359
aI4445
aI4473
aI66
aI25272
aI25226
aI25305
aI25216
aI25238
aI25228
aI25305
aI25225
aI25237
aI25240
aI25242
aI25244
aI25305
aI25229
aI25233
aI25244
aI25305
aI25237
aI25240
aI25226
aI25229
aI25305
aI25242
aI25238
aI25232
aI25239
aI25301
aI25305
aI25229
aI25233
aI25244
aI25216
aI25305
aI25240
aI25227
aI25244
aI25305
aI25240
aI25237
aI25237
aI25305
aI25227
aI25244
aI25237
aI25244
aI25240
aI25226
aI25244
aI25245
aI25305
aI25238
aI25239
aI25229
aI25238
aI25305
aI25229
aI25233
aI25244
aI25305
aI25247
aI25237
aI25238
aI25238
aI25227
aI25303
aI25331
aI66
aI29490
aI29440
aI29523
aI29450
aI29468
aI29446
aI29523
aI29443
aI29471
aI29458
aI29456
aI29462
aI29523
aI29447
aI29467
aI29462
aI29523
aI29471
aI29458
aI29440
aI29447
aI29523
aI29456
aI29468
aI29466
aI29469
aI29535
aI29523
aI29450
aI29468
aI29446
aI29523
aI29467
aI29462
aI29458
aI29441
aI29523
aI29458
aI29523
aI29456
aI29471
aI29466
aI29456
aI29464
aI29523
aI29461
aI29441
aI29468
aI29470
aI29523
aI29447
aI29467
aI29462
aI29523
aI29469
aI29468
aI29441
aI29447
aI29467
aI29523
aI29463
aI29468
aI29468
aI29441
aI29533
aI29561
aI169
aI31411
aI31442
aI31361
aI31366
aI31360
aI31379
aI31388
aI31381
aI31383
aI31454
aI31442
aI31383
aI31390
aI31383
aI31377
aI31366
aI31360
aI31389
aI31388
aI31387
aI31377
aI31442
aI31364
aI31389
aI31387
aI31377
aI31383
aI31442
aI31387
aI31361
aI31442
aI31362
aI31360
aI31389
aI31384
aI31383
aI31377
aI31366
aI31383
aI31382
aI31442
aI31387
aI31388
aI31366
aI31389
aI31442
aI31371
aI31389
aI31367
aI31360
aI31442
aI31391
aI31387
aI31388
aI31382
aI31432
aI31480
aI31480
aI31442
aI31442
aI31440
aI31399
aI31388
aI31367
aI31361
aI31367
aI31379
aI31390
aI31442
aI31361
aI31383
aI31366
aI31366
aI31387
aI31388
aI31381
aI31442
aI31382
aI31383
aI31366
aI31383
aI31377
aI31366
aI31383
aI31382
aI31443
aI31442
aI31442
aI31393
aI31366
aI31379
aI31360
aI31366
aI31387
aI31388
aI31381
aI31442
aI31377
aI31389
aI31388
aI31380
aI31387
aI31360
aI31391
aI31379
aI31366
aI31387
aI31389
aI31388
aI31442
aI31362
aI31360
aI31389
aI31377
aI31383
aI31361
aI31361
aI31443
aI31442
aI31442
aI31415
aI31361
aI31366
aI31387
aI31391
aI31379
aI31366
aI31383
aI31382
aI31442
aI31366
aI31387
aI31391
aI31383
aI31442
aI31366
aI31389
aI31442
aI31377
aI31389
aI31391
aI31362
aI31390
aI31383
aI31366
aI31387
aI31389
aI31388
aI31432
aI31442
aI31427
aI31442
aI31376
aI31387
aI31390
aI31390
aI31387
aI31389
aI31388
aI31442
aI31371
aI31383
aI31379
aI31360
aI31361
aI31452
aI31440
aI31480
aI31480
aI226
aI30520
aI30478
aI30484
aI30529
aI30486
aI30464
aI30474
aI30468
aI30529
aI30484
aI30481
aI30529
aI30478
aI30479
aI30529
aI30464
aI30529
aI30482
aI30464
aI30479
aI30469
aI30488
aI30529
aI30467
aI30468
aI30464
aI30466
aI30473
aI30529
aI30486
aI30472
aI30485
aI30473
aI30529
aI30464
aI30529
aI30482
aI30477
aI30472
aI30470
aI30473
aI30485
aI30529
aI30473
aI30468
aI30464
aI30469
aI30464
aI30466
aI30473
aI30468
aI30543
aI30529
aI30529
aI30517
aI30473
aI30468
aI30529
aI30477
aI30464
aI30482
aI30485
aI30529
aI30485
aI30473
aI30472
aI30479
aI30470
aI30529
aI30488
aI30478
aI30484
aI30529
aI30483
aI30468
aI30476
aI30468
aI30476
aI30467
aI30468
aI30483
aI30529
aI30472
aI30482
aI30529
aI30464
aI30466
aI30485
aI30472
aI30487
aI30464
aI30485
aI30472
aI30479
aI30470
aI30529
aI30485
aI30473
aI30464
aI30485
aI30529
aI30485
aI30468
aI30477
aI30468
aI30481
aI30478
aI30483
aI30485
aI30468
aI30483
aI30543
aI30543
aI30543
aI30529
aI30467
aI30484
aI30485
aI30529
aI30479
aI30478
aI30486
aI30529
aI30488
aI30478
aI30484
aI30529
aI30466
aI30464
aI30479
aI30534
aI30485
aI30529
aI30471
aI30472
aI30479
aI30469
aI30529
aI30472
aI30485
aI30529
aI30464
aI30479
aI30488
aI30486
aI30473
aI30468
aI30483
aI30468
aI30529
aI30472
aI30479
aI30529
aI30488
aI30478
aI30484
aI30483
aI30529
aI30481
aI30464
aI30466
aI30474
aI30543
aI30529
aI30529
aI30514
aI30478
aI30476
aI30468
aI30478
aI30479
aI30468
aI30529
aI30482
aI30468
aI30468
aI30476
aI30482
aI30529
aI30485
aI30478
aI30529
aI30473
aI30464
aI30487
aI30468
aI30529
aI30469
aI30483
aI30464
aI30486
aI30479
aI30529
aI30464
aI30529
aI30476
aI30468
aI30482
aI30482
aI30464
aI30470
aI30468
aI30529
aI30472
aI30479
aI30529
aI30485
aI30473
aI30468
aI30529
aI30482
aI30464
aI30479
aI30469
aI30529
aI30473
aI30468
aI30483
aI30468
aI30555
aI30571
aI30571
aI30529
aI30529
aI30529
aI30529
aI3
aI28828
aI25227
aI8656
aI154
aI6114
aI6114
aI6049
aI6044
aI6088
aI6026
aI6029
aI6031
aI6017
aI6022
aI6043
aI6088
aI6044
aI6023
aI6088
aI6042
aI6025
aI6017
aI6022
aI6086
aI6088
aI6088
aI6076
aI6016
aI6029
aI6088
aI6021
aI6029
aI6043
aI6043
aI6025
aI6031
aI6029
aI6088
aI6047
aI6025
aI6043
aI6016
aI6029
aI6043
aI6088
aI6025
aI6047
aI6025
aI6033
aI6086
aI6088
aI6088
aI6065
aI6023
aI6045
aI6088
aI6044
aI6025
aI6019
aI6029
aI6088
aI6025
aI6088
aI6028
aI6029
aI6029
aI6040
aI6088
aI6026
aI6042
aI6029
aI6025
aI6044
aI6016
aI6088
aI6025
aI6022
aI6028
aI6088
aI6030
aI6029
aI6029
aI6020
aI6088
aI6030
aI6017
aI6042
aI6021
aI6020
aI6033
aI6088
aI6031
aI6042
aI6023
aI6045
aI6022
aI6028
aI6029
aI6028
aI6088
aI6017
aI6022
aI6088
aI6042
aI6029
aI6025
aI6020
aI6017
aI6044
aI6033
aI6088
aI6025
aI6043
aI6088
aI6044
aI6016
aI6029
aI6088
aI6029
aI6030
aI6030
aI6029
aI6027
aI6044
aI6043
aI6088
aI6023
aI6030
aI6088
aI6044
aI6016
aI6029
aI6088
aI6044
aI6029
aI6020
aI6029
aI6040
aI6023
aI6042
aI6044
aI6025
aI6044
aI6017
aI6023
aI6022
aI6088
aI6047
aI6029
aI6025
aI6042
aI6088
aI6023
aI6030
aI6030
aI6086
aI6114
aI6114
aI144
aI28460
aI28493
aI28446
aI28441
aI28447
aI28428
aI28419
aI28426
aI28424
aI28481
aI28493
aI28424
aI28417
aI28424
aI28430
aI28441
aI28447
aI28418
aI28419
aI28420
aI28430
aI28493
aI28443
aI28418
aI28420
aI28430
aI28424
aI28493
aI28420
aI28446
aI28493
aI28445
aI28447
aI28418
aI28423
aI28424
aI28430
aI28441
aI28424
aI28425
aI28493
aI28420
aI28419
aI28441
aI28418
aI28493
aI28436
aI28418
aI28440
aI28447
aI28493
aI28416
aI28420
aI28419
aI28425
aI28503
aI28519
aI28519
aI28493
aI28493
aI28495
aI28448
aI28420
aI28446
aI28430
aI28428
aI28417
aI28420
aI28431
aI28447
aI28428
aI28441
aI28420
aI28418
aI28419
aI28493
aI28425
aI28424
aI28441
aI28424
aI28430
aI28441
aI28424
aI28425
aI28492
aI28493
aI28493
aI28460
aI28431
aI28418
aI28447
aI28441
aI28420
aI28419
aI28426
aI28493
aI28441
aI28424
aI28417
aI28424
aI28445
aI28418
aI28447
aI28441
aI28428
aI28441
aI28420
aI28418
aI28419
aI28492
aI28495
aI28519
aI28519
aI28451
aI28418
aI28441
aI28421
aI28420
aI28419
aI28426
aI28493
aI28424
aI28417
aI28446
aI28424
aI28493
aI28446
aI28424
aI28424
aI28416
aI28446
aI28493
aI28441
aI28418
aI28493
aI28421
aI28428
aI28445
aI28445
aI28424
aI28419
aI28483
aI28519
aI28519
aI117
aI9774
aI9752
aI9730
aI9815
aI9750
aI9748
aI9731
aI9758
aI9729
aI9750
aI9731
aI9746
aI9815
aI9731
aI9759
aI9746
aI9815
aI9731
aI9746
aI9755
aI9746
aI9735
aI9752
aI9733
aI9731
aI9746
aI9733
aI9814
aI9815
aI9815
aI9782
aI9732
aI9815
aI9742
aI9752
aI9730
aI9815
aI9732
aI9735
aI9758
aI9733
aI9750
aI9755
aI9815
aI9731
aI9759
aI9733
aI9752
aI9730
aI9744
aI9759
aI9815
aI9731
aI9758
aI9754
aI9746
aI9815
aI9750
aI9753
aI9747
aI9815
aI9732
aI9735
aI9750
aI9748
aI9746
aI9819
aI9815
aI9742
aI9752
aI9730
aI9815
aI9731
aI9759
aI9758
aI9753
aI9756
aI9815
aI9742
aI9752
aI9730
aI9815
aI9732
aI9746
aI9746
aI9815
aI9750
aI9815
aI9735
aI9750
aI9731
aI9731
aI9746
aI9733
aI9753
aI9815
aI9758
aI9753
aI9815
aI9731
aI9759
aI9746
aI9815
aI9732
aI9731
aI9750
aI9733
aI9732
aI9817
aI9817
aI9817
aI9853
aI9853
aI9815
aI9815
aI9815
aI9815
aI3
aI6862
aI25498
aI6328
aI89
aI10337
aI10337
aI10282
aI10253
aI10271
aI10254
aI10265
aI10315
aI10250
aI10315
aI10253
aI10254
aI10268
aI10315
aI10246
aI10244
aI10246
aI10254
aI10245
aI10271
aI10264
aI10311
aI10315
aI10258
aI10244
aI10270
aI10315
aI10253
aI10242
aI10245
aI10255
aI10315
aI10258
aI10244
aI10270
aI10265
aI10264
aI10254
aI10247
aI10253
aI10315
aI10249
aI10250
aI10248
aI10240
aI10315
aI10244
aI10245
aI10315
aI10264
aI10244
aI10247
aI10242
aI10255
aI10315
aI10252
aI10265
aI10244
aI10270
aI10245
aI10255
aI10315
aI10250
aI10245
aI10255
aI10315
aI10250
aI10315
aI10247
aI10242
aI10271
aI10271
aI10247
aI10254
aI10315
aI10255
aI10242
aI10264
aI10244
aI10265
aI10242
aI10254
aI10245
aI10271
aI10254
aI10255
aI10309
aI10337
aI10337
aI184
aI29496
aI29454
aI29460
aI29505
aI29446
aI29440
aI29467
aI29444
aI29505
aI29448
aI29455
aI29461
aI29454
aI29505
aI29461
aI29449
aI29444
aI29505
aI29452
aI29448
aI29459
aI29459
aI29454
aI29459
aI29517
aI29505
aI29440
aI29455
aI29445
aI29505
aI29464
aI29454
aI29460
aI29505
aI29458
aI29444
aI29444
aI29505
aI29464
aI29454
aI29460
aI29459
aI29458
aI29444
aI29453
aI29447
aI29505
aI29446
aI29440
aI29467
aI29448
aI29455
aI29446
aI29505
aI29443
aI29440
aI29442
aI29450
aI29519
aI29505
aI29505
aI29475
aI29460
aI29461
aI29505
aI29462
aI29440
aI29448
aI29461
aI29504
aI29505
aI29505
aI29480
aI29461
aI29505
aI29453
aI29454
aI29454
aI29450
aI29458
aI29505
aI29453
aI29448
aI29450
aI29444
aI29505
aI29458
aI29454
aI29452
aI29444
aI29454
aI29455
aI29444
aI29505
aI29462
aI29459
aI29454
aI29461
aI29444
aI29505
aI29454
aI29455
aI29505
aI29464
aI29454
aI29460
aI29459
aI29505
aI29447
aI29440
aI29442
aI29444
aI29505
aI29462
aI29449
aI29448
aI29453
aI29444
aI29505
aI29464
aI29454
aI29460
aI29505
aI29462
aI29444
aI29459
aI29444
aI29505
aI29460
aI29455
aI29442
aI29454
aI29455
aI29458
aI29442
aI29448
aI29454
aI29460
aI29458
aI29505
aI29454
aI29455
aI29505
aI29461
aI29449
aI29444
aI29505
aI29443
aI29444
aI29440
aI29442
aI29449
aI29504
aI29505
aI29505
aI29493
aI29449
aI29459
aI29454
aI29460
aI29446
aI29449
aI29505
aI29461
aI29449
aI29444
aI29505
aI29452
aI29448
aI29459
aI29459
aI29454
aI29459
aI29517
aI29505
aI29464
aI29454
aI29460
aI29505
aI29458
aI29444
aI29444
aI29505
aI29507
aI3
aI20886
aI2339
aI4725
aI103
aI30923
aI30921
aI30874
aI30858
aI30875
aI30856
aI30878
aI30853
aI30860
aI30861
aI30921
aI30848
aI30855
aI30921
aI30858
aI30849
aI30856
aI30875
aI30858
aI30854
aI30856
aI30853
aI30921
aI30854
aI30855
aI30921
aI30864
aI30854
aI30876
aI30875
aI30921
aI30863
aI30854
aI30875
aI30860
aI30849
aI30860
aI30856
aI30861
aI30919
aI30947
aI30947
aI30890
aI30854
aI30855
aI30862
aI30875
aI30856
aI30877
aI30876
aI30853
aI30856
aI30877
aI30848
aI30854
aI30855
aI30874
aI30930
aI30921
aI30864
aI30854
aI30876
aI30921
aI30849
aI30856
aI30879
aI30860
aI30921
aI30875
aI30860
aI30856
aI30858
aI30849
aI30860
aI30861
aI30921
aI30877
aI30849
aI30860
aI30921
aI30860
aI30855
aI30861
aI30921
aI30854
aI30863
aI30921
aI30877
aI30849
aI30860
aI30921
aI30858
aI30849
aI30856
aI30853
aI30853
aI30860
aI30855
aI30862
aI30860
aI30920
aI30947
aI30947
aI0
aI0
aI0
aI0
aI0
aI0
aI0
aI0
aI0
aI0
aI0
aI0
aI0
aI0
aI0
aI0
aI0
aI0
aI0
aI0
aI0
aI0
aI0
aI0
aI0
aI0
aI0
aI0
aI0
aI0
aI0
aI0
aI0
aI0
aI0
aI0
aI0
aI0
aI0
aI0
aI0
aI0
aI0
aI0
aI0
aI0
aI0
aI0
aI0
aI0
aI0
aI0
aI0
aI0
aI0
aI0
aI0
aI0
aI0
aI0
aI0
aI0
aI0
aI0
aI0
aI0
aI0
aI0
aI0
aI0
aI0
aI0
aI0
aI0
aI0
aI0
aI0
aI0
aI0
aI0
aI0
aI0
aI0
aI0
aI0
aI0
aI0
aI0
aI0
aI0
aI0
aI0
aI0
aI0
aI0
aI0
aI0
aI0
aI0
aI0
aI0
aI0
aI0
aI0
aI0
aI0
aI0
aI0
aI0
aI0
aI0
aI0
aI0
aI0
aI0
aI0
aI0
aI0
aI0
aI0
aI0
aI0
aI0
aI0
aI0
aI0
aI0
aI0
aI0
aI0
aI0
aI0
aI0
aI0
aI0
aI0
aI0
aI0
aI0
aI0
aI0
aI0
aI0
aI0
aI0
aI0
aI0
aI0
aI0
aI0
aI0
aI0
aI0
aI0
aI0
aI0
aI0
aI0
aI0
aI0
aI0
aI0
aI0
aI0
aI0
aI0
aI0
aI0
aI0
aI0
aI0
aI0
aI0
aI0
aI0
aI0
aI0
aI0
aI0
aI0
aI0
aI0
aI0
aI0
aI0
aI0
aI0
aI0
aI0
aI0
aI0
aI0
aI0
aI0
aI0
aI0
aI0
aI0
aI0
aI0
aI0
aI0
aI0
aI0
aI0
aI0
aI0
aI0
aI0
aI0
aI0
aI0
aI0
aI0
aI0
aI0
aI0
aI0
aI0
aI0
aI0
aI0
aI0
aI0
aI0
aI0
aI0
aI0
aI0
aI0
aI0
aI0
aI0
aI0
aI0
aI0
aI0
aI0
aI0
aI0
aI0
aI0
aI0
aI0
aI0
aI0
aI0
aI0
aI0
aI0
aI0
aI0
aI0
aI0
aI0
aI0
aI0
aI0
aI0
aI0
aI0
aI0
aI0
aI0
aI0
aI0
aI0
aI0
aI0
aI0
aI0
aI0
aI0
aI0
aI0
aI0
aI0
aI0
aI0
aI0
aI0
aI0
aI0
aI0
aI0
aI0
aI0
aI0
aI0
aI0
aI0
aI0
aI0
aI0
aI0
aI0
aI0
aI0
aI0
aI0
aI0
aI0
aI0
aI0
aI0
aI0
aI0
aI0
aI0
aI0
aI0
aI0
aI0
aI0
aI0
aI0
aI0
aI0
aI0
aI0
aI0
aI0
aI0
aI0
aI0
aI0
aI0
aI0
aI0
aI0
aI0
aI0
aI0
aI0
aI0
aI0
aI0
aI0
aI0
aI0
aI0
aI0
aI0
aI0
aI0
aI0
aI0
aI0
aI0
aI0
aI0
aI0
aI0
aI0
aI0
aI0
aI0
aI0
aI0
aI0
aI0
aI0
aI0
aI0
aI0
aI0
aI0
aI0
aI0
aI0
aI0
aI0
aI0
aI0
aI0
aI0
aI0
aI0
aI0
aI0
aI0
aI0
aI0
aI0
aI0
aI0
aI0
aI0
aI0
aI0
aI0
aI0
aI0
aI0
aI0
aI0
aI0
aI0
aI0
aI0
aI0
aI0
aI0
aI0
aI0
aI0
aI0
aI0
aI0
aI0
aI0
aI0
aI0
aI0
aI0
aI0
aI0
aI0
aI0
aI0
aI0
aI0
aI0
aI0
aI0
aI0
aI0
aI0
aI0
aI0
aI0
aI0
aI0
aI0
aI0
aI0
aI0
aI0
aI0
aI0
aI0
aI0
aI0
aI0
aI0
aI0
aI0
aI0
aI0
aI0
aI0
aI0
aI0
aI0
aI0
aI0
aI0
aI0
aI0
aI0
aI0
aI0
aI0
aI0
aI0
aI0
aI0
aI0
aI0
aI0
aI0
aI0
aI0
aI0
aI0
aI0
aI0
aI0
aI0
aI0
aI0
aI0
aI0
aI0
aI0
aI0
aI0
aI0
aI0
aI0
aI0
aI0
aI0
aI0
aI0
aI0
aI0
aI0
aI0
aI0
aI0
aI0
aI0
aI0
aI0
aI0
aI0
aI0
aI0
aI0
aI0
aI0
aI0
aI0
aI0
aI0
aI0
aI0
aI0
aI0
aI0
aI0
aI0
aI0
aI0
aI0
aI0
aI0
aI0
aI0
aI0
aI0
aI0
aI0
aI0
aI0
aI0
aI0
aI0
aI0
aI0
aI0
aI0
aI0
aI0
aI0
aI0
aI0
aI0
aI0
aI0
aI0
aI0
aI0
aI0
aI0
aI0
aI0
aI0
aI0
aI0
aI0
aI0
aI0
aI0
aI0
aI0
aI0
aI0
aI0
aI0
aI0
aI0
aI0
aI0
aI0
aI0
aI0
aI0
aI0
aI0
aI0
aI0
aI0
aI0
aI0
aI0
aI0
aI0
aI0
aI0
aI0
aI0
aI0
aI0
aI0
aI0
aI0
aI0
aI0
aI0
aI0
aI0
aI0
aI0
aI0
aI0
aI0
aI0
aI0
aI0
aI0
aI0
aI0
aI0
aI0
aI0
aI0
aI0
aI0
aI0
aI0
aI0
aI0
aI0
aI0
aI0
aI0
aI0
aI0
aI0
aI0
aI0
aI0
aI0
aI0
aI0
aI0
aI0
aI0
aI0
aI0
aI0
aI0
aI0
aI0
aI0
aI0
aI0
aI0
aI0
aI0
aI0
aI0
aI0
aI0
aI0
aI0
aI0
aI0
aI0
aI0
aI0
aI0
aI0
aI0
aI0
aI0
aI0
aI0
aI0
aI0
aI0
aI0
aI0
aI0
aI0
aI0
aI0
aI0
aI0
aI0
aI0
aI0
aI0
aI0
aI0
aI0
aI0
aI0
aI0
aI0
aI0
aI0
aI0
aI0
aI0
aI0
aI0
aI0
aI0
aI0
aI0
aI0
aI0
aI0
aI0
aI0
aI0
aI0
aI0
aI0
aI0
aI0
aI0
aI0
aI0
aI0
aI0
aI0
aI0
aI0
aI0
aI0
aI0
aI0
aI0
aI0
aI0
aI0
aI0
aI0
aI0
aI0
aI0
aI0
aI0
aI0
aI0
aI0
aI0
aI0
aI0
aI0
aI0
aI0
aI0
aI0
aI0
aI0
aI0
aI0
aI0
aI0
aI0
aI0
aI0
aI0
aI0
aI0
aI0
aI0
aI0
aI0
aI0
aI0
aI0
aI0
aI0
aI0
aI0
aI0
aI0
aI0
aI0
aI0
aI0
aI0
aI0
aI0
aI0
aI0
aI0
aI0
aI0
aI0
aI0
aI0
aI0
aI0
aI0
aI0
aI0
aI0
aI0
aI0
aI0
aI0
aI0
aI0
aI0
aI0
aI0
aI0
aI0
aI0
aI0
aI0
aI0
aI0
aI0
aI0
aI0
aI0
aI0
aI0
aI0
aI0
aI0
aI0
aI0
aI0
aI0
aI0
aI0
aI0
aI0
aI0
aI0
aI0
aI0
aI0
aI0
aI0
aI0
aI0
aI0
aI0
aI0
aI0
aI0
aI0
aI0
aI0
aI0
aI0
aI0
aI0
aI0
aI0
aI0
aI0
aI0
aI0
aI0
aI0
aI0
aI0
aI0
aI0
aI0
aI0
aI0
aI0
aI0
aI0
aI0
aI0
aI0
aI0
aI0
aI0
aI0
aI0
aI0
aI0
aI0
aI0
aI0
aI0
aI0
aI0
aI0
aI0
aI0
aI0
aI0
aI0
aI0
aI0
aI0
aI0
aI0
aI0
aI0
aI0
aI0
aI0
aI0
aI0
aI0
aI0
aI0
aI0
aI0
aI0
aI0
aI0
aI0
aI0
aI0
aI0
aI0
aI0
aI0
aI0
aI0
aI0
aI0
aI0
aI0
aI0
aI0
aI0
aI0
aI0
aI0
aI0
aI0
aI0
aI0
aI0
aI0
aI0
aI0
aI0
aI0
aI0
aI0
aI0
aI0
aI0
aI0
aI0
aI0
aI0
aI0
aI0
aI0
aI0
aI0
aI0
aI0
aI0
aI0
aI0
aI0
aI0
aI0
aI0
aI0
aI0
aI0
aI0
aI0
aI0
aI0
aI0
aI0
aI0
aI0
aI0
aI0
aI0
aI0
aI0
aI0
aI0
aI0
aI0
aI0
aI0
aI0
aI0
aI0
aI0
aI0
aI0
aI0
aI0
aI0
aI0
aI0
aI0
aI0
aI0
aI0
aI0
aI0
aI0
aI0
aI0
aI0
aI0
aI0
aI0
aI0
aI0
aI0
aI0
aI0
aI0
aI0
aI0
aI0
aI0
aI0
aI0
aI0
aI0
aI0
aI0
aI0
aI0
aI0
aI0
aI0
aI0
aI0
aI0
aI0
aI0
aI0
aI0
aI0
aI0
aI0
aI0
aI0
aI0
aI0
aI0
aI0
aI0
aI0
aI0
aI0
aI0
aI0
aI0
aI0
aI0
aI0
aI0
aI0
aI0
aI0
aI0
aI0
aI0
aI0
aI0
aI0
aI0
aI0
aI0
aI0
aI0
aI0
aI0
aI0
aI0
aI0
aI0
aI0
aI0
aI0
aI0
aI0
aI0
aI0
aI0
aI0
aI0
aI0
aI0
aI0
aI0
aI0
aI0
aI0
aI0
aI0
aI0
aI0
aI0
aI0
aI0
aI0
aI0
aI0
aI0
aI0
aI0
aI0
aI0
aI0
aI0
aI0
aI0
aI0
aI0
aI0
aI0
aI0
aI0
aI0
aI0
aI0
aI0
aI0
aI0
aI0
aI0
aI0
aI0
aI0
aI0
aI0
aI0
aI0
aI0
aI0
aI0
aI0
aI0
aI0
aI0
aI0
aI0
aI0
aI0
aI0
aI0
aI0
aI0
aI0
aI0
aI0
aI0
aI0
aI0
aI0
aI0
aI0
aI0
aI0
aI0
aI0
aI0
aI0
aI0
aI0
aI0
aI0
aI0
aI0
aI0
aI0
aI0
aI0
aI0
aI0
aI0
aI0
aI0
aI0
aI0
aI0
aI0
aI0
aI0
aI0
aI0
aI0
aI0
aI0
aI0
aI0
aI0
aI0
aI0
aI0
aI0
aI0
aI0
aI0
aI0
aI0
aI0
aI0
aI0
aI0
aI0
aI0
aI0
aI0
aI0
aI0
aI0
aI0
aI0
aI0
aI0
aI0
aI0
aI0
aI0
aI0
aI0
aI0
aI0
aI0
aI0
aI0
aI0
aI0
aI0
aI0
aI0
aI0
aI0
aI0
aI0
aI0
aI0
aI0
aI0
aI0
aI0
aI0
aI0
aI0
aI0
aI0
aI0
aI0
aI0
aI0
aI0
aI0
aI0
aI0
aI0
aI0
aI0
aI0
aI0
aI0
aI0
aI0
aI0
aI0
aI0
aI0
aI0
aI0
aI0
aI0
aI0
aI0
aI0
aI0
aI0
aI0
aI0
aI0
aI0
aI0
aI0
aI0
aI0
aI0
aI0
aI0
aI0
aI0
aI0
aI0
aI0
aI0
aI0
aI0
aI0
aI0
aI0
aI0
aI0
aI0
aI0
aI0
aI0
aI0
aI0
aI0
aI0
aI0
aI0
aI0
aI0
aI0
aI0
aI0
aI0
aI0
aI0
aI0
aI0
aI0
aI0
aI0
aI0
aI0
aI0
aI0
aI0
aI0
aI0
aI0
aI0
aI0
aI0
aI0
aI0
aI0
aI0
aI0
aI0
aI0
aI0
aI0
aI0
aI0
aI0
aI0
aI0
aI0
aI0
aI0
aI0
aI0
aI0
aI0
aI0
aI0
aI0
aI0
aI0
aI0
aI0
aI0
aI0
aI0
aI0
aI0
aI0
aI0
aI0
aI0
aI0
aI0
aI0
aI0
aI0
aI0
aI0
aI0
aI0
aI0
aI0
aI0
aI0
aI0
aI0
aI0
aI0
aI0
aI0
aI0
aI0
aI0
aI0
aI0
aI0
aI0
aI0
aI0
aI0
aI0
aI0
aI0
aI0
aI0
aI0
aI0
aI0
aI0
aI0
aI0
aI0
aI0
aI0
aI0
aI0
aI0
aI0
aI0
aI0
aI0
aI0
aI0
aI0
aI0
aI0
aI0
aI0
aI0
aI0
aI0
aI0
aI0
aI0
aI0
aI0
aI0
aI0
aI0
aI0
aI0
aI0
aI0
aI0
aI0
aI0
aI0
aI0
aI0
aI0
aI0
aI0
aI0
aI0
aI0
aI0
aI0
aI0
aI0
aI0
aI0
aI0
aI0
aI0
aI0
aI0
aI0
aI0
aI0
aI0
aI0
aI0
aI0
aI0
aI0
aI0
aI0
aI0
aI0
aI0
aI0
aI0
aI0
aI0
aI0
aI0
aI0
aI0
aI0
aI0
aI0
aI0
aI0
aI0
aI0
aI0
aI0
aI0
aI0
aI0
aI0
aI0
aI0
aI0
aI0
aI0
aI0
aI0
aI0
aI0
aI0
aI0
aI0
aI0
aI0
aI0
aI0
aI0
aI0
aI0
aI0
aI0
aI0
aI0
aI0
aI0
aI0
aI0
aI0
aI0
aI0
aI0
aI0
aI0
aI0
aI0
aI0
aI0
aI0
aI0
aI0
aI0
aI0
aI0
aI0
aI0
aI0
aI0
aI0
aI0
aI0
aI0
aI0
aI0
aI0
aI0
aI0
aI0
aI0
aI0
aI0
aI0
aI0
aI0
aI0
aI0
aI0
aI0
aI0
aI0
aI0
aI0
aI0
aI0
aI0
aI0
aI0
aI0
aI0
aI0
aI0
aI0
aI0
aI0
aI0
aI0
aI0
aI0
aI0
aI0
aI0
aI0
aI0
aI0
aI0
aI0
aI0
aI0
aI0
aI0
aI0
aI0
aI0
aI0
aI0
aI0
aI0
aI0
aI0
aI0
aI0
aI0
aI0
aI0
aI0
aI0
aI0
aI0
aI0
aI0
aI0
aI0
aI0
aI0
aI0
aI0
aI0
aI0
aI0
aI0
aI0
aI0
aI0
aI0
aI0
aI0
aI0
aI0
aI0
aI0
aI0
aI0
aI0
aI0
aI0
aI0
aI0
aI0
aI0
aI0
aI0
aI0
aI0
aI0
aI0
aI0
aI0
aI0
aI0
aI0
aI0
aI0
aI0
aI0
aI0
aI0
aI0
aI0
aI0
aI0
aI0
aI0
aI0
aI0
aI0
aI0
aI0
aI0
aI0
aI0
aI0
aI0
aI0
aI0
aI0
aI0
aI0
aI0
aI0
aI0
aI0
aI0
aI0
aI0
aI0
aI0
aI0
aI0
aI0
aI0
aI0
aI0
aI0
aI0
aI0
aI0
aI0
aI0
aI0
aI0
aI0
aI0
aI0
aI0
aI0
aI0
aI0
aI0
aI0
aI0
aI0
aI0
aI0
aI0
aI0
aI0
aI0
aI0
aI0
aI0
aI0
aI0
aI0
aI0
aI0
aI0
aI0
aI0
aI0
aI0
aI0
aI0
aI0
aI0
aI0
aI0
aI0
aI0
aI0
aI0
aI0
aI0
aI0
aI0
aI0
aI0
aI0
aI0
aI0
aI0
aI0
aI0
aI0
aI0
aI0
aI0
aI0
aI0
aI0
aI0
aI0
aI0
aI0
aI0
aI0
aI0
aI0
aI0
aI0
aI0
aI0
aI0
aI0
aI0
aI0
aI0
aI0
aI0
aI0
aI0
aI0
aI0
aI0
aI0
aI0
aI0
aI0
aI0
aI0
aI0
aI0
aI0
aI0
aI0
aI0
aI0
aI0
aI0
aI0
aI0
aI0
aI0
aI0
aI0
aI0
aI0
aI0
aI0
aI0
aI0
aI0
aI0
aI0
aI0
aI0
aI0
aI0
aI0
aI0
aI0
aI0
aI0
aI0
aI0
aI0
aI0
aI0
aI0
aI0
aI0
aI0
aI0
aI0
aI0
aI0
aI0
aI0
aI0
aI0
aI0
aI0
aI0
aI0
aI0
aI0
aI0
aI0
aI0
aI0
aI0
aI0
aI0
aI0
aI0
aI0
aI0
aI0
aI0
aI0
aI0
aI0
aI0
aI0
aI0
aI0
aI0
aI0
aI0
aI0
aI0
aI0
aI0
aI0
aI0
aI0
aI0
aI0
aI0
aI0
aI0
aI0
aI0
aI0
aI0
aI0
aI0
aI0
aI0
aI0
aI0
aI0
aI0
aI0
aI0
aI0
aI0
aI0
aI0
aI0
aI0
aI0
aI0
aI0
aI0
aI0
aI0
aI0
aI0
aI0
aI0
aI0
aI0
aI0
aI0
aI0
aI0
aI0
aI0
aI0
aI0
aI0
aI0
aI0
aI0
aI0
aI0
aI0
aI0
aI0
aI0
aI0
aI0
aI0
aI0
aI0
aI0
aI0
aI0
aI0
aI0
aI0
aI0
aI0
aI0
aI0
aI0
aI0
aI0
aI0
aI0
aI0
aI0
aI0
aI0
aI0
aI0
aI0
aI0
aI0
aI0
aI0
aI0
aI0
aI0
aI0
aI0
aI0
aI0
aI0
aI0
aI0
aI0
aI0
aI0
aI0
aI0
aI0
aI0
aI0
aI0
aI0
aI0
aI0
aI0
aI0
aI0
aI0
aI0
aI0
aI0
aI0
aI0
aI0
aI0
aI0
aI0
aI0
aI0
aI0
aI0
aI0
aI0
aI0
aI0
aI0
aI0
aI0
aI0
aI0
aI0
aI0
aI0
aI0
aI0
aI0
aI0
aI0
aI0
aI0
aI0
aI0
aI0
aI0
aI0
aI0
aI0
aI0
aI0
aI0
aI0
aI0
aI0
aI0
aI0
aI0
aI0
aI0
aI0
aI0
aI0
aI0
aI0
aI0
aI0
aI0
aI0
aI0
aI0
aI0
aI0
aI0
aI0
aI0
aI0
aI0
aI0
aI0
aI0
aI0
aI0
aI0
aI0
aI0
aI0
aI0
aI0
aI0
aI0
aI0
aI0
aI0
aI0
aI0
aI0
aI0
aI0
aI0
aI0
aI0
aI0
aI0
aI0
aI0
aI0
aI0
aI0
aI0
aI0
aI0
aI0
aI0
aI0
aI0
aI0
aI0
aI0
aI0
aI0
aI0
aI0
aI0
aI0
aI0
aI0
aI0
aI0
aI0
aI0
aI0
aI0
aI0
aI0
aI0
aI0
aI0
aI0
aI0
aI0
aI0
aI0
aI0
aI0
aI0
aI0
aI0
aI0
aI0
aI0
aI0
aI0
aI0
aI0
aI0
aI0
aI0
aI0
aI0
aI0
aI0
aI0
aI0
aI0
aI0
aI0
aI0
aI0
aI0
aI0
aI0
aI0
aI0
aI0
aI0
aI0
aI0
aI0
aI0
aI0
aI0
aI0
aI0
aI0
aI0
aI0
aI0
aI0
aI0
aI0
aI0
aI0
aI0
aI0
aI0
aI0
aI0
aI0
aI0
aI0
aI0
aI0
aI0
aI0
aI0
aI0
aI0
aI0
aI0
aI0
aI0
aI0
aI0
aI0
aI0
aI0
aI0
aI0
aI0
aI0
aI0
aI0
aI0
aI0
aI0
aI0
aI0
aI0
aI0
aI0
aI0
aI0
aI0
aI0
aI0
aI0
aI0
aI0
aI0
aI0
aI0
aI0
aI0
aI0
aI0
aI0
aI0
aI0
aI0
aI0
aI0
aI0
aI0
aI0
aI0
aI0
aI0
aI0
aI0
aI0
aI0
aI0
aI0
aI0
aI0
aI0
aI0
aI0
aI0
aI0
aI0
aI0
aI0
aI0
aI0
aI0
aI0
aI0
aI0
aI0
aI0
aI0
aI0
aI0
aI0
aI0
aI0
aI0
aI0
aI0
aI0
aI0
aI0
aI0
aI0
aI0
aI0
aI0
aI0
aI0
aI0
aI0
aI0
aI0
aI0
aI0
aI0
aI0
aI0
aI0
aI0
aI0
aI0
aI0
aI0
aI0
aI0
aI0
aI0
aI0
aI0
aI0
aI0
aI0
aI0
aI0
aI0
aI0
aI0
aI0
aI0
aI0
aI0
aI0
aI0
aI0
aI0
aI0
aI0
aI0
aI0
aI0
aI0
aI0
aI0
aI0
aI0
aI0
aI0
aI0
aI0
aI0
aI0
aI0
aI0
aI0
aI0
aI0
aI0
aI0
aI0
aI0
aI0
aI0
aI0
aI0
aI0
aI0
aI0
aI0
aI0
aI0
aI0
aI0
aI0
aI0
aI0
aI0
aI0
aI0
aI0
aI0
aI0
aI0
aI0
aI0
aI0
aI0
aI0
aI0
aI0
aI0
aI0
aI0
aI0
aI0
aI0
aI0
aI0
aI0
aI0
aI0
aI0
aI0
aI0
aI0
aI0
aI0
aI0
aI0
aI0
aI0
aI0
aI0
aI0
aI0
aI0
aI0
aI0
aI0
aI0
aI0
aI0
aI0
aI0
aI0
aI0
aI0
aI0
aI0
aI0
aI0
aI0
aI0
aI0
aI0
aI0
aI0
aI0
aI0
aI0
aI0
aI0
aI0
aI0
aI0
aI0
aI0
aI0
aI0
aI0
aI0
aI0
aI0
aI0
aI0
aI0
aI0
aI0
aI0
aI0
aI0
aI0
aI0
aI0
aI0
aI0
aI0
aI0
aI0
aI0
aI0
aI0
aI0
aI0
aI0
aI0
aI0
aI0
aI0
aI0
aI0
aI0
aI0
aI0
aI0
aI0
aI0
aI0
aI0
aI0
aI0
aI0
aI0
aI0
aI0
aI0
aI0
aI0
aI0
aI0
aI0
aI0
aI0
aI0
aI0
aI0
aI0
aI0
aI0
aI0
aI0
aI0
aI0
aI0
aI0
aI0
aI0
aI0
aI0
aI0
aI0
aI0
aI0
aI0
aI0
aI0
aI0
aI0
aI0
aI0
aI0
aI0
aI0
aI0
aI0
aI0
aI0
aI0
aI0
aI0
aI0
aI0
aI0
aI0
aI0
aI0
aI0
aI0
aI0
aI0
aI0
aI0
aI0
aI0
aI0
aI0
aI0
aI0
aI0
aI0
aI0
aI0
aI0
aI0
aI0
aI0
aI0
aI0
aI0
aI0
aI0
aI0
aI0
aI0
aI0
aI0
aI0
aI0
aI0
aI0
aI0
aI0
aI0
aI0
aI0
aI0
aI0
aI0
aI0
aI0
aI0
aI0
aI0
aI0
aI0
aI0
aI0
aI0
aI0
aI0
aI0
aI0
aI0
aI0
aI0
aI0
aI0
aI0
aI0
aI0
aI0
aI0
aI0
aI0
aI0
aI0
aI0
aI0
aI0
aI0
aI0
aI0
aI0
aI0
aI0
aI0
aI0
aI0
aI0
aI0
aI0
aI0
aI0
aI0
aI0
aI0
aI0
aI0
aI0
aI0
aI0
aI0
aI0
aI0
aI0
aI0
aI0
aI0
aI0
aI0
aI0
aI0
aI0
aI0
aI0
aI0
aI0
aI0
aI0
aI0
aI0
aI0
aI0
aI0
aI0
aI0
aI0
aI0
aI0
aI0
aI0
aI0
aI0
aI0
aI0
aI0
aI0
aI0
aI0
aI0
aI0
aI0
aI0
aI0
aI0
aI0
aI0
aI0
aI0
aI0
aI0
aI0
aI0
aI0
aI0
aI0
aI0
aI0
aI0
aI0
aI0
aI0
aI0
aI0
aI0
aI0
aI0
aI0
aI0
aI0
aI0
aI0
aI0
aI0
aI0
aI0
aI0
aI0
aI0
aI0
aI0
aI0
aI0
aI0
aI0
aI0
aI0
aI0
aI0
aI0
aI0
asS'pc'
p15
I1800
sS'r'
p16
g7
sS'memory'
p17
g14
sS'stack'
p18
(lp19
I6080
aI16
aI6124
aI1
aI2826
aI32
aI4
aI10
aI101
aI0
asb.